ARM GAS  /var/folders/by/7g7br9lj2xnbkz1cp6hj5p2r0000gn/T//ccEdrVkR.s 			page 1


   1              		.cpu cortex-m4
   2              		.eabi_attribute 27, 1
   3              		.eabi_attribute 28, 1
   4              		.eabi_attribute 20, 1
   5              		.eabi_attribute 21, 1
   6              		.eabi_attribute 23, 3
   7              		.eabi_attribute 24, 1
   8              		.eabi_attribute 25, 1
   9              		.eabi_attribute 26, 1
  10              		.eabi_attribute 30, 2
  11              		.eabi_attribute 34, 1
  12              		.eabi_attribute 18, 4
  13              		.file	"communications.c"
  14              		.text
  15              	.Ltext0:
  16              		.cfi_sections	.debug_frame
  17              		.section	.text.ReceiveInt16FromComputer,"ax",%progbits
  18              		.align	1
  19              		.p2align 4,,15
  20              		.global	ReceiveInt16FromComputer
  21              		.syntax unified
  22              		.thumb
  23              		.thumb_func
  24              		.fpu fpv4-sp-d16
  25              		.type	ReceiveInt16FromComputer, %function
  26              	ReceiveInt16FromComputer:
  27              	.LFB256:
  28              		.file 1 "communications.c"
  29              		.loc 1 13 0
  30              		.cfi_startproc
  31              		@ args = 0, pretend = 0, frame = 8
  32              		@ frame_needed = 0, uses_anonymous_args = 0
  33              	.LVL0:
  34 0000 2DE9F041 		push	{r4, r5, r6, r7, r8, lr}
  35              		.cfi_def_cfa_offset 24
  36              		.cfi_offset 4, -24
  37              		.cfi_offset 5, -20
  38              		.cfi_offset 6, -16
  39              		.cfi_offset 7, -12
  40              		.cfi_offset 8, -8
  41              		.cfi_offset 14, -4
  42 0004 474D     		ldr	r5, .L31
  43              		.loc 1 22 0
  44 0006 0368     		ldr	r3, [r0]
  45              		.loc 1 13 0
  46 0008 2E68     		ldr	r6, [r5]
  47              		.loc 1 22 0
  48 000a DB68     		ldr	r3, [r3, #12]
  49              		.loc 1 13 0
  50 000c 82B0     		sub	sp, sp, #8
  51              		.cfi_def_cfa_offset 32
  52              		.loc 1 16 0
  53 000e 4FF0000C 		mov	ip, #0
  54              		.loc 1 13 0
  55 0012 0196     		str	r6, [sp, #4]
  56              		.loc 1 16 0
  57 0014 ADF802C0 		strh	ip, [sp, #2]	@ movhi
ARM GAS  /var/folders/by/7g7br9lj2xnbkz1cp6hj5p2r0000gn/T//ccEdrVkR.s 			page 2


  58              	.LVL1:
  59              		.loc 1 13 0
  60 0018 0446     		mov	r4, r0
  61 001a 0E46     		mov	r6, r1
  62 001c 1746     		mov	r7, r2
  63              		.loc 1 22 0
  64 001e 9847     		blx	r3
  65              	.LVL2:
  66 0020 C0B2     		uxtb	r0, r0
  67 0022 8DF80000 		strb	r0, [sp]
  68 0026 04E0     		b	.L2
  69              	.L26:
  70 0028 2046     		mov	r0, r4
  71 002a 9847     		blx	r3
  72              	.LVL3:
  73 002c C0B2     		uxtb	r0, r0
  74 002e 8DF80000 		strb	r0, [sp]
  75              	.L2:
  76              		.loc 1 28 0
  77 0032 9DF80030 		ldrb	r3, [sp]	@ zero_extendqisi2
  78              	.L3:
  79              		.loc 1 33 0
  80 0036 9DF80030 		ldrb	r3, [sp]	@ zero_extendqisi2
  81 003a 542B     		cmp	r3, #84
  82              		.loc 1 35 0
  83 003c 18BF     		it	ne
  84 003e 9DF80030 		ldrbne	r3, [sp]	@ zero_extendqisi2
  85              		.loc 1 40 0
  86 0042 9DF80030 		ldrb	r3, [sp]	@ zero_extendqisi2
  87 0046 412B     		cmp	r3, #65
  88              		.loc 1 42 0
  89 0048 18BF     		it	ne
  90 004a 9DF80030 		ldrbne	r3, [sp]	@ zero_extendqisi2
  91              		.loc 1 47 0
  92 004e 9DF80030 		ldrb	r3, [sp]	@ zero_extendqisi2
  93 0052 522B     		cmp	r3, #82
  94              		.loc 1 49 0
  95 0054 18BF     		it	ne
  96 0056 9DF80030 		ldrbne	r3, [sp]	@ zero_extendqisi2
  97              		.loc 1 54 0
  98 005a 9DF80020 		ldrb	r2, [sp]	@ zero_extendqisi2
  99 005e 2368     		ldr	r3, [r4]
 100 0060 542A     		cmp	r2, #84
 101 0062 DB68     		ldr	r3, [r3, #12]
 102 0064 09D0     		beq	.L7
 103              		.loc 1 56 0
 104 0066 9DF80020 		ldrb	r2, [sp]	@ zero_extendqisi2
 105 006a 532A     		cmp	r2, #83
 106 006c DCD1     		bne	.L26
 107              		.loc 1 22 0
 108 006e 2046     		mov	r0, r4
 109 0070 9847     		blx	r3
 110              	.LVL4:
 111 0072 C0B2     		uxtb	r0, r0
 112 0074 8DF80000 		strb	r0, [sp]
 113 0078 DDE7     		b	.L3
 114              	.L7:
ARM GAS  /var/folders/by/7g7br9lj2xnbkz1cp6hj5p2r0000gn/T//ccEdrVkR.s 			page 3


 115              		.loc 1 64 0
 116 007a 2046     		mov	r0, r4
 117 007c 9847     		blx	r3
 118              	.LVL5:
 119              		.loc 1 65 0
 120 007e 2368     		ldr	r3, [r4]
 121              		.loc 1 64 0
 122 0080 C0B2     		uxtb	r0, r0
 123              		.loc 1 65 0
 124 0082 DB68     		ldr	r3, [r3, #12]
 125              		.loc 1 64 0
 126 0084 8DF80000 		strb	r0, [sp]
 127              		.loc 1 65 0
 128 0088 2046     		mov	r0, r4
 129 008a 9847     		blx	r3
 130              	.LVL6:
 131 008c C0B2     		uxtb	r0, r0
 132 008e 8DF80100 		strb	r0, [sp, #1]
 133              		.loc 1 69 0
 134 0092 9DF80030 		ldrb	r3, [sp]	@ zero_extendqisi2
 135 0096 9DF80120 		ldrb	r2, [sp, #1]	@ zero_extendqisi2
 136 009a 43EA0223 		orr	r3, r3, r2, lsl #8
 137 009e ADF80230 		strh	r3, [sp, #2]	@ movhi
 138              		.loc 1 71 0
 139 00a2 BDF80230 		ldrh	r3, [sp, #2]
 140 00a6 B7EB530F 		cmp	r7, r3, lsr #1
 141 00aa 0AD0     		beq	.L29
 142              	.LVL7:
 143              	.L10:
 144              		.loc 1 82 0
 145 00ac BDF80200 		ldrh	r0, [sp, #2]
 146              		.loc 1 84 0
 147 00b0 019A     		ldr	r2, [sp, #4]
 148 00b2 2B68     		ldr	r3, [r5]
 149 00b4 9A42     		cmp	r2, r3
 150 00b6 4FEA5000 		lsr	r0, r0, #1
 151 00ba 30D1     		bne	.L30
 152 00bc 02B0     		add	sp, sp, #8
 153              		.cfi_remember_state
 154              		.cfi_def_cfa_offset 24
 155              		@ sp needed
 156 00be BDE8F081 		pop	{r4, r5, r6, r7, r8, pc}
 157              	.LVL8:
 158              	.L29:
 159              		.cfi_restore_state
 160              		.loc 1 72 0
 161 00c2 BDF80230 		ldrh	r3, [sp, #2]
 162 00c6 5B08     		lsrs	r3, r3, #1
 163 00c8 F0D0     		beq	.L10
 164              		.loc 1 78 0
 165 00ca 4FF00008 		mov	r8, #0
 166              		.loc 1 72 0
 167 00ce 0027     		movs	r7, #0
 168              	.LVL9:
 169              	.L11:
 170              		.loc 1 74 0 discriminator 3
 171 00d0 2368     		ldr	r3, [r4]
ARM GAS  /var/folders/by/7g7br9lj2xnbkz1cp6hj5p2r0000gn/T//ccEdrVkR.s 			page 4


 172 00d2 2046     		mov	r0, r4
 173 00d4 DB68     		ldr	r3, [r3, #12]
 174 00d6 9847     		blx	r3
 175              	.LVL10:
 176              		.loc 1 75 0 discriminator 3
 177 00d8 2368     		ldr	r3, [r4]
 178              		.loc 1 74 0 discriminator 3
 179 00da C0B2     		uxtb	r0, r0
 180              		.loc 1 75 0 discriminator 3
 181 00dc DB68     		ldr	r3, [r3, #12]
 182              		.loc 1 74 0 discriminator 3
 183 00de 8DF80000 		strb	r0, [sp]
 184              		.loc 1 75 0 discriminator 3
 185 00e2 2046     		mov	r0, r4
 186 00e4 9847     		blx	r3
 187              	.LVL11:
 188 00e6 C0B2     		uxtb	r0, r0
 189 00e8 8DF80100 		strb	r0, [sp, #1]
 190              		.loc 1 77 0 discriminator 3
 191 00ec 9DF80030 		ldrb	r3, [sp]	@ zero_extendqisi2
 192 00f0 9DF80110 		ldrb	r1, [sp, #1]	@ zero_extendqisi2
 193              		.loc 1 72 0 discriminator 3
 194 00f4 BDF80220 		ldrh	r2, [sp, #2]
 195              		.loc 1 78 0 discriminator 3
 196 00f8 C6F80480 		str	r8, [r6, #4]	@ float
 197              		.loc 1 77 0 discriminator 3
 198 00fc 43EA0123 		orr	r3, r3, r1, lsl #8
 199 0100 1BB2     		sxth	r3, r3
 200 0102 07EE903A 		vmov	s15, r3	@ int
 201              		.loc 1 72 0 discriminator 3
 202 0106 0137     		adds	r7, r7, #1
 203              	.LVL12:
 204              		.loc 1 77 0 discriminator 3
 205 0108 F8EEE77A 		vcvt.f32.s32	s15, s15
 206              		.loc 1 72 0 discriminator 3
 207 010c BFB2     		uxth	r7, r7
 208              	.LVL13:
 209 010e B7EB520F 		cmp	r7, r2, lsr #1
 210              		.loc 1 77 0 discriminator 3
 211 0112 C6ED007A 		vstr.32	s15, [r6]
 212 0116 06F10806 		add	r6, r6, #8
 213              		.loc 1 72 0 discriminator 3
 214 011a D9D3     		bcc	.L11
 215 011c C6E7     		b	.L10
 216              	.LVL14:
 217              	.L30:
 218              		.loc 1 84 0
 219 011e FFF7FEFF 		bl	__stack_chk_fail
 220              	.LVL15:
 221              	.L32:
 222 0122 00BF     		.align	2
 223              	.L31:
 224 0124 00000000 		.word	__stack_chk_guard
 225              		.cfi_endproc
 226              	.LFE256:
 227              		.size	ReceiveInt16FromComputer, .-ReceiveInt16FromComputer
 228              		.text
ARM GAS  /var/folders/by/7g7br9lj2xnbkz1cp6hj5p2r0000gn/T//ccEdrVkR.s 			page 5


 229              	.Letext0:
 230              		.file 2 "/Applications/Eclipse_e-puck2.app/Contents/Eclipse_e-puck2/Tools/gcc-arm-none-eabi-7-2017
 231              		.file 3 "/Applications/Eclipse_e-puck2.app/Contents/Eclipse_e-puck2/Tools/gcc-arm-none-eabi-7-2017
 232              		.file 4 "/Applications/Eclipse_e-puck2.app/Contents/Eclipse_e-puck2/Tools/gcc-arm-none-eabi-7-2017
 233              		.file 5 "../../lib/e-puck2_main-processor/ChibiOS//os/rt/ports/ARMCMx/compilers/GCC/chtypes.h"
 234              		.file 6 "../../lib/e-puck2_main-processor/ChibiOS//os/rt/include/chsystypes.h"
 235              		.file 7 "../../lib/e-puck2_main-processor/ChibiOS//os/rt/include/chschd.h"
 236              		.file 8 "../../lib/e-puck2_main-processor/ChibiOS//os/ext/CMSIS/include/core_cm4.h"
 237              		.file 9 "../../lib/e-puck2_main-processor/ChibiOS//os/ext/CMSIS/ST/system_stm32f4xx.h"
 238              		.file 10 "../../lib/e-puck2_main-processor/ChibiOS//os/ext/CMSIS/ST/stm32f407xx.h"
 239              		.file 11 "../../lib/e-puck2_main-processor/ChibiOS//os/rt/ports/ARMCMx/chcore.h"
 240              		.file 12 "../../lib/e-puck2_main-processor/ChibiOS//os/rt/ports/ARMCMx/chcore_v7m.h"
 241              		.file 13 "../../lib/e-puck2_main-processor/ChibiOS//os/rt/include/chdebug.h"
 242              		.file 14 "../../lib/e-puck2_main-processor/ChibiOS//os/rt/include/chtm.h"
 243              		.file 15 "../../lib/e-puck2_main-processor/ChibiOS//os/rt/include/chstats.h"
 244              		.file 16 "../../lib/e-puck2_main-processor/ChibiOS//os/rt/include/chsem.h"
 245              		.file 17 "../../lib/e-puck2_main-processor/ChibiOS//os/rt/include/chmtx.h"
 246              		.file 18 "../../lib/e-puck2_main-processor/ChibiOS//os/rt/include/chregistry.h"
 247              		.file 19 "../../lib/e-puck2_main-processor/ChibiOS//os/rt/include/chevents.h"
 248              		.file 20 "../../lib/e-puck2_main-processor/ChibiOS//os/rt/include/chqueues.h"
 249              		.file 21 "../../lib/e-puck2_main-processor/ChibiOS//os/rt/include/chstreams.h"
 250              		.file 22 "../../lib/e-puck2_main-processor/ChibiOS//os/hal/ports/STM32/STM32F4xx/stm32_dma.h"
 251              		.file 23 "../../lib/e-puck2_main-processor/ChibiOS//os/hal/include/hal_ioblock.h"
 252              		.file 24 "../../lib/e-puck2_main-processor/ChibiOS//os/hal/ports/STM32/LLD/GPIOv2/pal_lld.h"
 253              		.file 25 "../../lib/e-puck2_main-processor/ChibiOS//os/hal/include/adc.h"
 254              		.file 26 "../../lib/e-puck2_main-processor/ChibiOS//os/hal/ports/STM32/STM32F4xx/adc_lld.h"
 255              		.file 27 "../../lib/e-puck2_main-processor/ChibiOS//os/hal/include/can.h"
 256              		.file 28 "../../lib/e-puck2_main-processor/ChibiOS//os/hal/ports/STM32/LLD/can_lld.h"
 257              		.file 29 "../../lib/e-puck2_main-processor/ChibiOS//os/hal/include/dac.h"
 258              		.file 30 "../../lib/e-puck2_main-processor/ChibiOS//os/hal/ports/STM32/LLD/DACv1/dac_lld.h"
 259              		.file 31 "../../lib/e-puck2_main-processor/ChibiOS//os/hal/include/ext.h"
 260              		.file 32 "../../lib/e-puck2_main-processor/ChibiOS//os/hal/ports/STM32/LLD/ext_lld.h"
 261              		.file 33 "../../lib/e-puck2_main-processor/ChibiOS//os/hal/include/gpt.h"
 262              		.file 34 "../../lib/e-puck2_main-processor/ChibiOS//os/hal/ports/STM32/LLD/TIMv1/gpt_lld.h"
 263              		.file 35 "../../lib/e-puck2_main-processor/ChibiOS//os/hal/ports/STM32/LLD/TIMv1/stm32_tim.h"
 264              		.file 36 "../../lib/e-puck2_main-processor/ChibiOS//os/hal/include/i2c.h"
 265              		.file 37 "../../lib/e-puck2_main-processor/ChibiOS//os/hal/ports/STM32/LLD/I2Cv1/i2c_lld.h"
 266              		.file 38 "../../lib/e-puck2_main-processor/ChibiOS//os/hal/include/i2s.h"
 267              		.file 39 "../../lib/e-puck2_main-processor/ChibiOS//os/hal/ports/STM32/LLD/SPIv1/i2s_lld.h"
 268              		.file 40 "../../lib/e-puck2_main-processor/ChibiOS//os/hal/include/pwm.h"
 269              		.file 41 "../../lib/e-puck2_main-processor/ChibiOS//os/hal/ports/STM32/LLD/TIMv1/pwm_lld.h"
 270              		.file 42 "../../lib/e-puck2_main-processor/ChibiOS//os/hal/include/serial.h"
 271              		.file 43 "../../lib/e-puck2_main-processor/ChibiOS//os/hal/ports/STM32/LLD/USARTv1/serial_lld.h"
 272              		.file 44 "../../lib/e-puck2_main-processor/ChibiOS//os/hal/include/sdc.h"
 273              		.file 45 "../../lib/e-puck2_main-processor/ChibiOS//os/hal/ports/STM32/LLD/sdc_lld.h"
 274              		.file 46 "../../lib/e-puck2_main-processor/ChibiOS//os/hal/include/spi.h"
 275              		.file 47 "../../lib/e-puck2_main-processor/ChibiOS//os/hal/ports/STM32/LLD/SPIv1/spi_lld.h"
 276              		.file 48 "../../lib/e-puck2_main-processor/ChibiOS//os/hal/include/usb.h"
 277              		.file 49 "../../lib/e-puck2_main-processor/ChibiOS//os/hal/ports/STM32/LLD/OTGv1/usb_lld.h"
 278              		.file 50 "../../lib/e-puck2_main-processor/ChibiOS//os/hal/ports/STM32/LLD/OTGv1/stm32_otg.h"
 279              		.file 51 "../../lib/e-puck2_main-processor/ChibiOS_ext/os/hal/include/../ports/STM32/STM32F4xx/dcm
 280              		.file 52 "/Applications/Eclipse_e-puck2.app/Contents/Eclipse_e-puck2/Tools/gcc-arm-none-eabi-7-201
 281              		.file 53 "/Applications/Eclipse_e-puck2.app/Contents/Eclipse_e-puck2/Tools/gcc-arm-none-eabi-7-201
 282              		.file 54 "/Applications/Eclipse_e-puck2.app/Contents/Eclipse_e-puck2/Tools/gcc-arm-none-eabi-7-201
 283              		.file 55 "../../lib/e-puck2_main-processor/src/msgbus/messagebus.h"
 284              		.file 56 "/Applications/Eclipse_e-puck2.app/Contents/Eclipse_e-puck2/Tools/gcc-arm-none-eabi-7-201
 285              		.file 57 "/Applications/Eclipse_e-puck2.app/Contents/Eclipse_e-puck2/Tools/gcc-arm-none-eabi-7-201
ARM GAS  /var/folders/by/7g7br9lj2xnbkz1cp6hj5p2r0000gn/T//ccEdrVkR.s 			page 6


 286              		.file 58 "../../lib/e-puck2_main-processor/src/parameter/parameter.h"
 287              		.file 59 "./main.h"