ARM GAS  /var/folders/by/7g7br9lj2xnbkz1cp6hj5p2r0000gn/T//ccBspsC5.s 			page 1


   1              		.cpu cortex-m4
   2              		.eabi_attribute 27, 1
   3              		.eabi_attribute 28, 1
   4              		.eabi_attribute 20, 1
   5              		.eabi_attribute 21, 1
   6              		.eabi_attribute 23, 3
   7              		.eabi_attribute 24, 1
   8              		.eabi_attribute 25, 1
   9              		.eabi_attribute 26, 1
  10              		.eabi_attribute 30, 2
  11              		.eabi_attribute 34, 1
  12              		.eabi_attribute 18, 4
  13              		.file	"main.c"
  14              		.text
  15              	.Ltext0:
  16              		.cfi_sections	.debug_frame
  17              		.section	.text.fsm,"ax",%progbits
  18              		.align	1
  19              		.p2align 4,,15
  20              		.syntax unified
  21              		.thumb
  22              		.thumb_func
  23              		.fpu fpv4-sp-d16
  24              		.type	fsm, %function
  25              	fsm:
  26              	.LFB260:
  27              		.file 1 "main.c"
  28              		.loc 1 63 0
  29              		.cfi_startproc
  30              		@ args = 0, pretend = 0, frame = 8
  31              		@ frame_needed = 0, uses_anonymous_args = 0
  32              	.LVL0:
  33 0000 2DE9F047 		push	{r4, r5, r6, r7, r8, r9, r10, lr}
  34              		.cfi_def_cfa_offset 32
  35              		.cfi_offset 4, -32
  36              		.cfi_offset 5, -28
  37              		.cfi_offset 6, -24
  38              		.cfi_offset 7, -20
  39              		.cfi_offset 8, -16
  40              		.cfi_offset 9, -12
  41              		.cfi_offset 10, -8
  42              		.cfi_offset 14, -4
  43              	.LBB8:
  44              	.LBB9:
  45              		.file 2 "../../lib/e-puck2_main-processor/ChibiOS//os/rt/include/chregistry.h"
  46              		.loc 2 135 0
  47 0004 2D4A     		ldr	r2, .L16
  48              	.LBE9:
  49              	.LBE8:
  50              		.loc 1 63 0
  51 0006 2E4B     		ldr	r3, .L16+4
  52              	.LBB12:
  53              	.LBB10:
  54              		.loc 2 135 0
  55 0008 9269     		ldr	r2, [r2, #24]
  56              	.LBE10:
  57              	.LBE12:
ARM GAS  /var/folders/by/7g7br9lj2xnbkz1cp6hj5p2r0000gn/T//ccBspsC5.s 			page 2


  58              		.loc 1 63 0
  59 000a 1B68     		ldr	r3, [r3]
  60              	.LBB13:
  61              	.LBB11:
  62              		.loc 2 135 0
  63 000c 2D49     		ldr	r1, .L16+8
  64 000e DFF8C080 		ldr	r8, .L16+20
  65 0012 2D4F     		ldr	r7, .L16+12
  66 0014 DFF8BC90 		ldr	r9, .L16+24
  67 0018 2C4E     		ldr	r6, .L16+16
  68 001a 9161     		str	r1, [r2, #24]
  69              	.LBE11:
  70              	.LBE13:
  71              		.loc 1 63 0
  72 001c 82B0     		sub	sp, sp, #8
  73              		.cfi_def_cfa_offset 40
  74              		.loc 1 94 0
  75 001e 0125     		movs	r5, #1
  76              		.loc 1 63 0
  77 0020 0193     		str	r3, [sp, #4]
  78              	.LVL1:
  79              		.loc 1 68 0
  80 0022 0023     		movs	r3, #0
  81 0024 8DF80230 		strb	r3, [sp, #2]
  82              		.loc 1 87 0
  83 0028 1C46     		mov	r4, r3
  84              		.loc 1 68 0
  85 002a 8DF80330 		strb	r3, [sp, #3]
  86              	.LVL2:
  87 002e 22E0     		b	.L10
  88              	.LVL3:
  89              	.L14:
  90              		.loc 1 78 0
  91 0030 9DF80230 		ldrb	r3, [sp, #2]	@ zero_extendqisi2
  92 0034 03F0FF02 		and	r2, r3, #255
  93 0038 002B     		cmp	r3, #0
  94 003a 3AD1     		bne	.L3
  95              		.loc 1 79 0
  96 003c 3A70     		strb	r2, [r7]
  97              	.L4:
  98              		.loc 1 86 0
  99 003e 9DF80330 		ldrb	r3, [sp, #3]	@ zero_extendqisi2
 100              		.loc 1 87 0
 101 0042 002B     		cmp	r3, #0
 102 0044 0CBF     		ite	eq
 103 0046 2B46     		moveq	r3, r5
 104 0048 2346     		movne	r3, r4
 105 004a 3370     		strb	r3, [r6]
 106              		.loc 1 101 0
 107 004c FFF7FEFF 		bl	get_game_over
 108              	.LVL4:
 109 0050 8246     		mov	r10, r0
 110              	.LVL5:
 111              		.loc 1 102 0
 112 0052 FFF7FEFF 		bl	get_win
 113              	.LVL6:
 114              		.loc 1 106 0
ARM GAS  /var/folders/by/7g7br9lj2xnbkz1cp6hj5p2r0000gn/T//ccBspsC5.s 			page 3


 115 0056 28BB     		cbnz	r0, .L7
 116              	.L15:
 117              		.loc 1 106 0 is_stmt 0 discriminator 1
 118 0058 BAF1000F 		cmp	r10, #0
 119 005c 22D1     		bne	.L7
 120              		.loc 1 113 0 is_stmt 1
 121 005e 98F80030 		ldrb	r3, [r8]	@ zero_extendqisi2
 122              		.loc 1 114 0
 123 0062 3D70     		strb	r5, [r7]
 124              		.loc 1 113 0
 125 0064 B3FA83F3 		clz	r3, r3
 126 0068 5B09     		lsrs	r3, r3, #5
 127              		.loc 1 115 0
 128 006a 3570     		strb	r5, [r6]
 129              		.loc 1 113 0
 130 006c 89F80030 		strb	r3, [r9]
 131              	.L9:
 132              		.loc 1 117 0
 133 0070 FA20     		movs	r0, #250
 134              	.LVL7:
 135 0072 FFF7FEFF 		bl	chThdSleep
 136              	.LVL8:
 137              	.L10:
 138              		.loc 1 73 0
 139 0076 FFF7FEFF 		bl	get_avoid
 140              	.LVL9:
 141 007a 8DF80300 		strb	r0, [sp, #3]
 142              		.loc 1 74 0
 143 007e FFF7FEFF 		bl	get_left
 144              	.LVL10:
 145              		.loc 1 76 0
 146 0082 98F80030 		ldrb	r3, [r8]	@ zero_extendqisi2
 147              		.loc 1 74 0
 148 0086 8DF80200 		strb	r0, [sp, #2]
 149              		.loc 1 76 0
 150 008a 002B     		cmp	r3, #0
 151 008c D0D1     		bne	.L14
 152              		.loc 1 94 0
 153 008e 89F80050 		strb	r5, [r9]
 154              		.loc 1 95 0
 155 0092 3B70     		strb	r3, [r7]
 156              		.loc 1 96 0
 157 0094 3370     		strb	r3, [r6]
 158              		.loc 1 101 0
 159 0096 FFF7FEFF 		bl	get_game_over
 160              	.LVL11:
 161 009a 8246     		mov	r10, r0
 162              	.LVL12:
 163              		.loc 1 102 0
 164 009c FFF7FEFF 		bl	get_win
 165              	.LVL13:
 166              		.loc 1 106 0
 167 00a0 0028     		cmp	r0, #0
 168 00a2 D9D0     		beq	.L15
 169              	.L7:
 170              		.loc 1 107 0
 171 00a4 88F80040 		strb	r4, [r8]
ARM GAS  /var/folders/by/7g7br9lj2xnbkz1cp6hj5p2r0000gn/T//ccBspsC5.s 			page 4


 172              		.loc 1 108 0
 173 00a8 89F80050 		strb	r5, [r9]
 174              		.loc 1 109 0
 175 00ac 3C70     		strb	r4, [r7]
 176              		.loc 1 110 0
 177 00ae 3470     		strb	r4, [r6]
 178 00b0 DEE7     		b	.L9
 179              	.LVL14:
 180              	.L3:
 181              		.loc 1 81 0
 182 00b2 89F80040 		strb	r4, [r9]
 183              		.loc 1 82 0
 184 00b6 3D70     		strb	r5, [r7]
 185 00b8 C1E7     		b	.L4
 186              	.L17:
 187 00ba 00BF     		.align	2
 188              	.L16:
 189 00bc 00000000 		.word	ch
 190 00c0 00000000 		.word	__stack_chk_guard
 191 00c4 00000000 		.word	.LANCHOR0
 192 00c8 00000000 		.word	.LANCHOR2
 193 00cc 00000000 		.word	.LANCHOR4
 194 00d0 00000000 		.word	.LANCHOR1
 195 00d4 00000000 		.word	.LANCHOR3
 196              		.cfi_endproc
 197              	.LFE260:
 198              		.size	fsm, .-fsm
 199              		.section	.text.Blinker,"ax",%progbits
 200              		.align	1
 201              		.p2align 4,,15
 202              		.syntax unified
 203              		.thumb
 204              		.thumb_func
 205              		.fpu fpv4-sp-d16
 206              		.type	Blinker, %function
 207              	Blinker:
 208              	.LFB261:
 209              		.loc 1 124 0
 210              		.cfi_startproc
 211              		@ args = 0, pretend = 0, frame = 8
 212              		@ frame_needed = 0, uses_anonymous_args = 0
 213              	.LVL15:
 214 0000 2DE9F04F 		push	{r4, r5, r6, r7, r8, r9, r10, fp, lr}
 215              		.cfi_def_cfa_offset 36
 216              		.cfi_offset 4, -36
 217              		.cfi_offset 5, -32
 218              		.cfi_offset 6, -28
 219              		.cfi_offset 7, -24
 220              		.cfi_offset 8, -20
 221              		.cfi_offset 9, -16
 222              		.cfi_offset 10, -12
 223              		.cfi_offset 11, -8
 224              		.cfi_offset 14, -4
 225              	.LBB14:
 226              	.LBB15:
 227              		.loc 2 135 0
 228 0004 714A     		ldr	r2, .L32
ARM GAS  /var/folders/by/7g7br9lj2xnbkz1cp6hj5p2r0000gn/T//ccBspsC5.s 			page 5


 229              	.LBE15:
 230              	.LBE14:
 231              		.loc 1 124 0
 232 0006 724B     		ldr	r3, .L32+4
 233              	.LBB18:
 234              	.LBB16:
 235              		.loc 2 135 0
 236 0008 9269     		ldr	r2, [r2, #24]
 237 000a 7249     		ldr	r1, .L32+8
 238              	.LBE16:
 239              	.LBE18:
 240              		.loc 1 124 0
 241 000c 1B68     		ldr	r3, [r3]
 242              	.LBB19:
 243              	.LBB17:
 244              		.loc 2 135 0
 245 000e 9161     		str	r1, [r2, #24]
 246              	.LBE17:
 247              	.LBE19:
 248              		.loc 1 124 0
 249 0010 83B0     		sub	sp, sp, #12
 250              		.cfi_def_cfa_offset 48
 251              		.loc 1 129 0
 252 0012 4FF0000B 		mov	fp, #0
 253              		.loc 1 124 0
 254 0016 0193     		str	r3, [sp, #4]
 255              	.LVL16:
 256 0018 2DE0     		b	.L26
 257              	.LVL17:
 258              	.L19:
 259              		.loc 1 152 0
 260 001a 002C     		cmp	r4, #0
 261 001c 5BD1     		bne	.L29
 262              		.loc 1 158 0
 263 001e B9F1000F 		cmp	r9, #0
 264 0022 71D1     		bne	.L30
 265              		.loc 1 164 0
 266 0024 BAF1000F 		cmp	r10, #0
 267 0028 40F08780 		bne	.L31
 268              		.loc 1 170 0
 269 002c 6A4B     		ldr	r3, .L32+12
 270 002e 1C78     		ldrb	r4, [r3]	@ zero_extendqisi2
 271              	.LVL18:
 272              		.loc 1 172 0
 273 0030 3922     		movs	r2, #57
 274 0032 1A23     		movs	r3, #26
 275              		.loc 1 170 0
 276 0034 002C     		cmp	r4, #0
 277 0036 00F0B280 		beq	.L24
 278              		.loc 1 171 0
 279 003a BBF1000F 		cmp	fp, #0
 280 003e 00F09580 		beq	.L25
 281              		.loc 1 172 0
 282 0042 5146     		mov	r1, r10
 283 0044 0220     		movs	r0, #2
 284              	.LVL19:
 285 0046 FFF7FEFF 		bl	set_rgb_led
ARM GAS  /var/folders/by/7g7br9lj2xnbkz1cp6hj5p2r0000gn/T//ccBspsC5.s 			page 6


 286              	.LVL20:
 287              		.loc 1 173 0
 288 004a 1A23     		movs	r3, #26
 289 004c 3922     		movs	r2, #57
 290 004e 5146     		mov	r1, r10
 291 0050 5046     		mov	r0, r10
 292 0052 FFF7FEFF 		bl	set_rgb_led
 293              	.LVL21:
 294              		.loc 1 174 0
 295 0056 1F23     		movs	r3, #31
 296 0058 1946     		mov	r1, r3
 297 005a 1E22     		movs	r2, #30
 298 005c 0120     		movs	r0, #1
 299 005e FFF7FEFF 		bl	set_rgb_led
 300              	.LVL22:
 301              		.loc 1 175 0
 302 0062 1F23     		movs	r3, #31
 303 0064 1946     		mov	r1, r3
 304 0066 1E22     		movs	r2, #30
 305 0068 0320     		movs	r0, #3
 306              		.loc 1 176 0
 307 006a D346     		mov	fp, r10
 308              	.LVL23:
 309              		.loc 1 175 0
 310 006c FFF7FEFF 		bl	set_rgb_led
 311              	.LVL24:
 312              	.L20:
 313              		.loc 1 192 0
 314 0070 FA20     		movs	r0, #250
 315 0072 FFF7FEFF 		bl	chThdSleep
 316              	.LVL25:
 317              	.L26:
 318              		.loc 1 134 0
 319 0076 FFF7FEFF 		bl	get_left
 320              	.LVL26:
 321 007a 0546     		mov	r5, r0
 322              	.LVL27:
 323              		.loc 1 135 0
 324 007c FFF7FEFF 		bl	get_avoid
 325              	.LVL28:
 326 0080 0446     		mov	r4, r0
 327              	.LVL29:
 328              		.loc 1 137 0
 329 0082 FFF7FEFF 		bl	get_game_over
 330              	.LVL30:
 331 0086 8246     		mov	r10, r0
 332              	.LVL31:
 333              		.loc 1 138 0
 334 0088 FFF7FEFF 		bl	get_win
 335              	.LVL32:
 336 008c 8146     		mov	r9, r0
 337              	.LVL33:
 338              		.loc 1 142 0
 339 008e FFF7FEFF 		bl	get_red
 340              	.LVL34:
 341 0092 0646     		mov	r6, r0
 342              	.LVL35:
ARM GAS  /var/folders/by/7g7br9lj2xnbkz1cp6hj5p2r0000gn/T//ccBspsC5.s 			page 7


 343              		.loc 1 143 0
 344 0094 FFF7FEFF 		bl	get_green
 345              	.LVL36:
 346 0098 0746     		mov	r7, r0
 347              	.LVL37:
 348              		.loc 1 144 0
 349 009a FFF7FEFF 		bl	get_blue
 350              	.LVL38:
 351 009e 8046     		mov	r8, r0
 352              	.LVL39:
 353              		.loc 1 146 0
 354 00a0 002D     		cmp	r5, #0
 355 00a2 BAD1     		bne	.L19
 356              		.loc 1 147 0
 357 00a4 0346     		mov	r3, r0
 358 00a6 3A46     		mov	r2, r7
 359 00a8 3146     		mov	r1, r6
 360 00aa 0220     		movs	r0, #2
 361              	.LVL40:
 362 00ac FFF7FEFF 		bl	set_rgb_led
 363              	.LVL41:
 364              		.loc 1 148 0
 365 00b0 4346     		mov	r3, r8
 366 00b2 3A46     		mov	r2, r7
 367 00b4 3146     		mov	r1, r6
 368 00b6 2846     		mov	r0, r5
 369 00b8 FFF7FEFF 		bl	set_rgb_led
 370              	.LVL42:
 371              		.loc 1 149 0
 372 00bc 4346     		mov	r3, r8
 373 00be 3A46     		mov	r2, r7
 374 00c0 3146     		mov	r1, r6
 375 00c2 0120     		movs	r0, #1
 376 00c4 FFF7FEFF 		bl	set_rgb_led
 377              	.LVL43:
 378              		.loc 1 150 0
 379 00c8 4346     		mov	r3, r8
 380 00ca 3A46     		mov	r2, r7
 381 00cc 3146     		mov	r1, r6
 382 00ce 0320     		movs	r0, #3
 383 00d0 FFF7FEFF 		bl	set_rgb_led
 384              	.LVL44:
 385 00d4 CCE7     		b	.L20
 386              	.LVL45:
 387              	.L29:
 388              		.loc 1 153 0
 389 00d6 0023     		movs	r3, #0
 390 00d8 3322     		movs	r2, #51
 391 00da 1F21     		movs	r1, #31
 392 00dc 0220     		movs	r0, #2
 393              	.LVL46:
 394 00de FFF7FEFF 		bl	set_rgb_led
 395              	.LVL47:
 396              		.loc 1 154 0
 397 00e2 0023     		movs	r3, #0
 398 00e4 1846     		mov	r0, r3
 399 00e6 3322     		movs	r2, #51
ARM GAS  /var/folders/by/7g7br9lj2xnbkz1cp6hj5p2r0000gn/T//ccBspsC5.s 			page 8


 400 00e8 1F21     		movs	r1, #31
 401 00ea FFF7FEFF 		bl	set_rgb_led
 402              	.LVL48:
 403              		.loc 1 155 0
 404 00ee 0023     		movs	r3, #0
 405 00f0 3322     		movs	r2, #51
 406 00f2 1F21     		movs	r1, #31
 407 00f4 0120     		movs	r0, #1
 408 00f6 FFF7FEFF 		bl	set_rgb_led
 409              	.LVL49:
 410              		.loc 1 156 0
 411 00fa 0023     		movs	r3, #0
 412 00fc 3322     		movs	r2, #51
 413 00fe 1F21     		movs	r1, #31
 414 0100 0320     		movs	r0, #3
 415 0102 FFF7FEFF 		bl	set_rgb_led
 416              	.LVL50:
 417 0106 B3E7     		b	.L20
 418              	.LVL51:
 419              	.L30:
 420              		.loc 1 159 0
 421 0108 2346     		mov	r3, r4
 422 010a 2146     		mov	r1, r4
 423 010c 3F22     		movs	r2, #63
 424 010e 0220     		movs	r0, #2
 425              	.LVL52:
 426 0110 FFF7FEFF 		bl	set_rgb_led
 427              	.LVL53:
 428              		.loc 1 160 0
 429 0114 2346     		mov	r3, r4
 430 0116 2146     		mov	r1, r4
 431 0118 2046     		mov	r0, r4
 432 011a 3F22     		movs	r2, #63
 433 011c FFF7FEFF 		bl	set_rgb_led
 434              	.LVL54:
 435              		.loc 1 161 0
 436 0120 2346     		mov	r3, r4
 437 0122 2146     		mov	r1, r4
 438 0124 3F22     		movs	r2, #63
 439 0126 0120     		movs	r0, #1
 440 0128 FFF7FEFF 		bl	set_rgb_led
 441              	.LVL55:
 442              		.loc 1 162 0
 443 012c 2346     		mov	r3, r4
 444 012e 2146     		mov	r1, r4
 445 0130 3F22     		movs	r2, #63
 446 0132 0320     		movs	r0, #3
 447 0134 FFF7FEFF 		bl	set_rgb_led
 448              	.LVL56:
 449 0138 9AE7     		b	.L20
 450              	.LVL57:
 451              	.L31:
 452              		.loc 1 165 0
 453 013a 4B46     		mov	r3, r9
 454 013c 4A46     		mov	r2, r9
 455 013e 1F21     		movs	r1, #31
 456 0140 0220     		movs	r0, #2
ARM GAS  /var/folders/by/7g7br9lj2xnbkz1cp6hj5p2r0000gn/T//ccBspsC5.s 			page 9


 457              	.LVL58:
 458 0142 FFF7FEFF 		bl	set_rgb_led
 459              	.LVL59:
 460              		.loc 1 166 0
 461 0146 4B46     		mov	r3, r9
 462 0148 4A46     		mov	r2, r9
 463 014a 4846     		mov	r0, r9
 464 014c 1F21     		movs	r1, #31
 465 014e FFF7FEFF 		bl	set_rgb_led
 466              	.LVL60:
 467              		.loc 1 167 0
 468 0152 4B46     		mov	r3, r9
 469 0154 4A46     		mov	r2, r9
 470 0156 1F21     		movs	r1, #31
 471 0158 0120     		movs	r0, #1
 472 015a FFF7FEFF 		bl	set_rgb_led
 473              	.LVL61:
 474              		.loc 1 168 0
 475 015e 4B46     		mov	r3, r9
 476 0160 4A46     		mov	r2, r9
 477 0162 1F21     		movs	r1, #31
 478 0164 0320     		movs	r0, #3
 479 0166 FFF7FEFF 		bl	set_rgb_led
 480              	.LVL62:
 481 016a 81E7     		b	.L20
 482              	.LVL63:
 483              	.L25:
 484              		.loc 1 178 0
 485 016c 5946     		mov	r1, fp
 486 016e 0120     		movs	r0, #1
 487              	.LVL64:
 488 0170 FFF7FEFF 		bl	set_rgb_led
 489              	.LVL65:
 490              		.loc 1 179 0
 491 0174 5946     		mov	r1, fp
 492 0176 1A23     		movs	r3, #26
 493 0178 3922     		movs	r2, #57
 494 017a 0320     		movs	r0, #3
 495 017c FFF7FEFF 		bl	set_rgb_led
 496              	.LVL66:
 497              		.loc 1 180 0
 498 0180 1F23     		movs	r3, #31
 499 0182 5846     		mov	r0, fp
 500 0184 1946     		mov	r1, r3
 501 0186 1E22     		movs	r2, #30
 502 0188 FFF7FEFF 		bl	set_rgb_led
 503              	.LVL67:
 504              		.loc 1 181 0
 505 018c 1F23     		movs	r3, #31
 506 018e 1946     		mov	r1, r3
 507 0190 1E22     		movs	r2, #30
 508 0192 0220     		movs	r0, #2
 509 0194 FFF7FEFF 		bl	set_rgb_led
 510              	.LVL68:
 511              		.loc 1 182 0
 512 0198 4FF0010B 		mov	fp, #1
 513 019c 68E7     		b	.L20
ARM GAS  /var/folders/by/7g7br9lj2xnbkz1cp6hj5p2r0000gn/T//ccBspsC5.s 			page 10


 514              	.LVL69:
 515              	.L24:
 516              		.loc 1 185 0
 517 019e 2146     		mov	r1, r4
 518 01a0 0220     		movs	r0, #2
 519              	.LVL70:
 520 01a2 FFF7FEFF 		bl	set_rgb_led
 521              	.LVL71:
 522              		.loc 1 186 0
 523 01a6 2146     		mov	r1, r4
 524 01a8 2046     		mov	r0, r4
 525 01aa 1A23     		movs	r3, #26
 526 01ac 3922     		movs	r2, #57
 527 01ae FFF7FEFF 		bl	set_rgb_led
 528              	.LVL72:
 529              		.loc 1 187 0
 530 01b2 2146     		mov	r1, r4
 531 01b4 1A23     		movs	r3, #26
 532 01b6 3922     		movs	r2, #57
 533 01b8 0120     		movs	r0, #1
 534 01ba FFF7FEFF 		bl	set_rgb_led
 535              	.LVL73:
 536              		.loc 1 188 0
 537 01be 2146     		mov	r1, r4
 538 01c0 1A23     		movs	r3, #26
 539 01c2 3922     		movs	r2, #57
 540 01c4 0320     		movs	r0, #3
 541 01c6 FFF7FEFF 		bl	set_rgb_led
 542              	.LVL74:
 543 01ca 51E7     		b	.L20
 544              	.L33:
 545              		.align	2
 546              	.L32:
 547 01cc 00000000 		.word	ch
 548 01d0 00000000 		.word	__stack_chk_guard
 549 01d4 00000000 		.word	.LANCHOR5
 550 01d8 00000000 		.word	.LANCHOR1
 551              		.cfi_endproc
 552              	.LFE261:
 553              		.size	Blinker, .-Blinker
 554              		.section	.text._init,"ax",%progbits
 555              		.align	1
 556              		.p2align 4,,15
 557              		.global	_init
 558              		.syntax unified
 559              		.thumb
 560              		.thumb_func
 561              		.fpu fpv4-sp-d16
 562              		.type	_init, %function
 563              	_init:
 564              	.LFB262:
 565              		.loc 1 202 0
 566              		.cfi_startproc
 567              		@ args = 0, pretend = 0, frame = 8
 568              		@ frame_needed = 0, uses_anonymous_args = 0
 569 0000 00B5     		push	{lr}
 570              		.cfi_def_cfa_offset 4
ARM GAS  /var/folders/by/7g7br9lj2xnbkz1cp6hj5p2r0000gn/T//ccBspsC5.s 			page 11


 571              		.cfi_offset 14, -4
 572 0002 064B     		ldr	r3, .L38
 573 0004 83B0     		sub	sp, sp, #12
 574              		.cfi_def_cfa_offset 16
 575              		.loc 1 202 0
 576 0006 1A68     		ldr	r2, [r3]
 577 0008 0192     		str	r2, [sp, #4]
 578 000a 019A     		ldr	r2, [sp, #4]
 579 000c 1B68     		ldr	r3, [r3]
 580 000e 9A42     		cmp	r2, r3
 581 0010 02D1     		bne	.L37
 582 0012 03B0     		add	sp, sp, #12
 583              		.cfi_remember_state
 584              		.cfi_def_cfa_offset 4
 585              		@ sp needed
 586 0014 5DF804FB 		ldr	pc, [sp], #4
 587              	.L37:
 588              		.cfi_restore_state
 589 0018 FFF7FEFF 		bl	__stack_chk_fail
 590              	.LVL75:
 591              	.L39:
 592              		.align	2
 593              	.L38:
 594 001c 00000000 		.word	__stack_chk_guard
 595              		.cfi_endproc
 596              	.LFE262:
 597              		.size	_init, .-_init
 598              		.section	.text.SendUint8ToComputer,"ax",%progbits
 599              		.align	1
 600              		.p2align 4,,15
 601              		.global	SendUint8ToComputer
 602              		.syntax unified
 603              		.thumb
 604              		.thumb_func
 605              		.fpu fpv4-sp-d16
 606              		.type	SendUint8ToComputer, %function
 607              	SendUint8ToComputer:
 608              	.LFB264:
 609              		.loc 1 220 0
 610              		.cfi_startproc
 611              		@ args = 0, pretend = 0, frame = 16
 612              		@ frame_needed = 0, uses_anonymous_args = 0
 613              	.LVL76:
 614 0000 70B5     		push	{r4, r5, r6, lr}
 615              		.cfi_def_cfa_offset 16
 616              		.cfi_offset 4, -16
 617              		.cfi_offset 5, -12
 618              		.cfi_offset 6, -8
 619              		.cfi_offset 14, -4
 620              		.loc 1 221 0
 621 0002 124C     		ldr	r4, .L44
 622              		.loc 1 220 0
 623 0004 124D     		ldr	r5, .L44+4
 624              		.loc 1 221 0
 625 0006 2368     		ldr	r3, [r4]
 626              		.loc 1 220 0
 627 0008 2A68     		ldr	r2, [r5]
ARM GAS  /var/folders/by/7g7br9lj2xnbkz1cp6hj5p2r0000gn/T//ccBspsC5.s 			page 12


 628 000a 84B0     		sub	sp, sp, #16
 629              		.cfi_def_cfa_offset 32
 630              		.loc 1 220 0
 631 000c 0646     		mov	r6, r0
 632 000e ADF80610 		strh	r1, [sp, #6]	@ movhi
 633              		.loc 1 221 0
 634 0012 1B68     		ldr	r3, [r3]
 635 0014 0F49     		ldr	r1, .L44+8
 636              	.LVL77:
 637              		.loc 1 220 0
 638 0016 0392     		str	r2, [sp, #12]
 639              		.loc 1 221 0
 640 0018 2046     		mov	r0, r4
 641              	.LVL78:
 642 001a 0522     		movs	r2, #5
 643 001c 9847     		blx	r3
 644              	.LVL79:
 645              		.loc 1 222 0
 646 001e 2368     		ldr	r3, [r4]
 647 0020 0222     		movs	r2, #2
 648 0022 1B68     		ldr	r3, [r3]
 649 0024 0DF10601 		add	r1, sp, #6
 650 0028 2046     		mov	r0, r4
 651 002a 9847     		blx	r3
 652              	.LVL80:
 653              		.loc 1 223 0
 654 002c 2368     		ldr	r3, [r4]
 655 002e BDF80620 		ldrh	r2, [sp, #6]
 656 0032 1B68     		ldr	r3, [r3]
 657 0034 3146     		mov	r1, r6
 658 0036 2046     		mov	r0, r4
 659 0038 9847     		blx	r3
 660              	.LVL81:
 661              		.loc 1 224 0
 662 003a 039A     		ldr	r2, [sp, #12]
 663 003c 2B68     		ldr	r3, [r5]
 664 003e 9A42     		cmp	r2, r3
 665 0040 01D1     		bne	.L43
 666 0042 04B0     		add	sp, sp, #16
 667              		.cfi_remember_state
 668              		.cfi_def_cfa_offset 16
 669              		@ sp needed
 670 0044 70BD     		pop	{r4, r5, r6, pc}
 671              	.LVL82:
 672              	.L43:
 673              		.cfi_restore_state
 674 0046 FFF7FEFF 		bl	__stack_chk_fail
 675              	.LVL83:
 676              	.L45:
 677 004a 00BF     		.align	2
 678              	.L44:
 679 004c 00000000 		.word	SD3
 680 0050 00000000 		.word	__stack_chk_guard
 681 0054 00000000 		.word	.LC0
 682              		.cfi_endproc
 683              	.LFE264:
 684              		.size	SendUint8ToComputer, .-SendUint8ToComputer
ARM GAS  /var/folders/by/7g7br9lj2xnbkz1cp6hj5p2r0000gn/T//ccBspsC5.s 			page 13


 685              		.section	.text.SendFloatToComputer,"ax",%progbits
 686              		.align	1
 687              		.p2align 4,,15
 688              		.global	SendFloatToComputer
 689              		.syntax unified
 690              		.thumb
 691              		.thumb_func
 692              		.fpu fpv4-sp-d16
 693              		.type	SendFloatToComputer, %function
 694              	SendFloatToComputer:
 695              	.LFB265:
 696              		.loc 1 227 0
 697              		.cfi_startproc
 698              		@ args = 0, pretend = 0, frame = 16
 699              		@ frame_needed = 0, uses_anonymous_args = 0
 700              	.LVL84:
 701 0000 70B5     		push	{r4, r5, r6, lr}
 702              		.cfi_def_cfa_offset 16
 703              		.cfi_offset 4, -16
 704              		.cfi_offset 5, -12
 705              		.cfi_offset 6, -8
 706              		.cfi_offset 14, -4
 707 0002 124D     		ldr	r5, .L50
 708              		.loc 1 228 0
 709 0004 0368     		ldr	r3, [r0]
 710              		.loc 1 227 0
 711 0006 84B0     		sub	sp, sp, #16
 712              		.cfi_def_cfa_offset 32
 713              		.loc 1 227 0
 714 0008 0446     		mov	r4, r0
 715 000a ADF80620 		strh	r2, [sp, #6]	@ movhi
 716 000e 2A68     		ldr	r2, [r5]
 717              	.LVL85:
 718              		.loc 1 228 0
 719 0010 1B68     		ldr	r3, [r3]
 720              		.loc 1 227 0
 721 0012 0392     		str	r2, [sp, #12]
 722 0014 0E46     		mov	r6, r1
 723              		.loc 1 228 0
 724 0016 0522     		movs	r2, #5
 725 0018 0D49     		ldr	r1, .L50+4
 726              	.LVL86:
 727 001a 9847     		blx	r3
 728              	.LVL87:
 729              		.loc 1 229 0
 730 001c 2368     		ldr	r3, [r4]
 731 001e 0222     		movs	r2, #2
 732 0020 1B68     		ldr	r3, [r3]
 733 0022 0DF10601 		add	r1, sp, #6
 734 0026 2046     		mov	r0, r4
 735 0028 9847     		blx	r3
 736              	.LVL88:
 737              		.loc 1 230 0
 738 002a 2368     		ldr	r3, [r4]
 739 002c BDF80620 		ldrh	r2, [sp, #6]
 740 0030 1B68     		ldr	r3, [r3]
 741 0032 9200     		lsls	r2, r2, #2
ARM GAS  /var/folders/by/7g7br9lj2xnbkz1cp6hj5p2r0000gn/T//ccBspsC5.s 			page 14


 742 0034 3146     		mov	r1, r6
 743 0036 2046     		mov	r0, r4
 744 0038 9847     		blx	r3
 745              	.LVL89:
 746              		.loc 1 231 0
 747 003a 039A     		ldr	r2, [sp, #12]
 748 003c 2B68     		ldr	r3, [r5]
 749 003e 9A42     		cmp	r2, r3
 750 0040 01D1     		bne	.L49
 751 0042 04B0     		add	sp, sp, #16
 752              		.cfi_remember_state
 753              		.cfi_def_cfa_offset 16
 754              		@ sp needed
 755 0044 70BD     		pop	{r4, r5, r6, pc}
 756              	.LVL90:
 757              	.L49:
 758              		.cfi_restore_state
 759 0046 FFF7FEFF 		bl	__stack_chk_fail
 760              	.LVL91:
 761              	.L51:
 762 004a 00BF     		.align	2
 763              	.L50:
 764 004c 00000000 		.word	__stack_chk_guard
 765 0050 00000000 		.word	.LC0
 766              		.cfi_endproc
 767              	.LFE265:
 768              		.size	SendFloatToComputer, .-SendFloatToComputer
 769              		.section	.text.readyAnimation,"ax",%progbits
 770              		.align	1
 771              		.p2align 4,,15
 772              		.global	readyAnimation
 773              		.syntax unified
 774              		.thumb
 775              		.thumb_func
 776              		.fpu fpv4-sp-d16
 777              		.type	readyAnimation, %function
 778              	readyAnimation:
 779              	.LFB266:
 780              		.loc 1 234 0
 781              		.cfi_startproc
 782              		@ args = 0, pretend = 0, frame = 8
 783              		@ frame_needed = 0, uses_anonymous_args = 0
 784 0000 10B5     		push	{r4, lr}
 785              		.cfi_def_cfa_offset 8
 786              		.cfi_offset 4, -8
 787              		.cfi_offset 14, -4
 788 0002 1D4C     		ldr	r4, .L57
 789 0004 82B0     		sub	sp, sp, #8
 790              		.cfi_def_cfa_offset 16
 791              		.loc 1 234 0
 792 0006 2368     		ldr	r3, [r4]
 793 0008 0193     		str	r3, [sp, #4]
 794              		.loc 1 236 0
 795 000a 0120     		movs	r0, #1
 796 000c FFF7FEFF 		bl	set_body_led
 797              	.LVL92:
 798              		.loc 1 237 0
ARM GAS  /var/folders/by/7g7br9lj2xnbkz1cp6hj5p2r0000gn/T//ccBspsC5.s 			page 15


 799 0010 6420     		movs	r0, #100
 800 0012 FFF7FEFF 		bl	chThdSleep
 801              	.LVL93:
 802              		.loc 1 238 0
 803 0016 0020     		movs	r0, #0
 804 0018 FFF7FEFF 		bl	set_body_led
 805              	.LVL94:
 806              		.loc 1 239 0
 807 001c 3220     		movs	r0, #50
 808 001e FFF7FEFF 		bl	chThdSleep
 809              	.LVL95:
 810              		.loc 1 240 0
 811 0022 0120     		movs	r0, #1
 812 0024 FFF7FEFF 		bl	set_body_led
 813              	.LVL96:
 814              		.loc 1 241 0
 815 0028 6420     		movs	r0, #100
 816 002a FFF7FEFF 		bl	chThdSleep
 817              	.LVL97:
 818              		.loc 1 242 0
 819 002e 0020     		movs	r0, #0
 820 0030 FFF7FEFF 		bl	set_body_led
 821              	.LVL98:
 822              		.loc 1 243 0
 823 0034 3220     		movs	r0, #50
 824 0036 FFF7FEFF 		bl	chThdSleep
 825              	.LVL99:
 826              		.loc 1 244 0
 827 003a 0120     		movs	r0, #1
 828 003c FFF7FEFF 		bl	set_body_led
 829              	.LVL100:
 830              		.loc 1 245 0
 831 0040 6420     		movs	r0, #100
 832 0042 FFF7FEFF 		bl	chThdSleep
 833              	.LVL101:
 834              		.loc 1 246 0
 835 0046 0020     		movs	r0, #0
 836 0048 FFF7FEFF 		bl	set_body_led
 837              	.LVL102:
 838              		.loc 1 247 0
 839 004c 3220     		movs	r0, #50
 840 004e FFF7FEFF 		bl	chThdSleep
 841              	.LVL103:
 842              		.loc 1 248 0
 843 0052 0120     		movs	r0, #1
 844 0054 FFF7FEFF 		bl	set_body_led
 845              	.LVL104:
 846              		.loc 1 251 0
 847 0058 4FF4FA70 		mov	r0, #500
 848 005c FFF7FEFF 		bl	chThdSleep
 849              	.LVL105:
 850              		.loc 1 252 0
 851 0060 019A     		ldr	r2, [sp, #4]
 852 0062 2368     		ldr	r3, [r4]
 853 0064 9A42     		cmp	r2, r3
 854 0066 05D1     		bne	.L56
 855 0068 0020     		movs	r0, #0
ARM GAS  /var/folders/by/7g7br9lj2xnbkz1cp6hj5p2r0000gn/T//ccBspsC5.s 			page 16


 856              		.loc 1 253 0
 857 006a 02B0     		add	sp, sp, #8
 858              		.cfi_remember_state
 859              		.cfi_def_cfa_offset 8
 860              		@ sp needed
 861 006c BDE81040 		pop	{r4, lr}
 862              		.cfi_restore 14
 863              		.cfi_restore 4
 864              		.cfi_def_cfa_offset 0
 865              		.loc 1 252 0
 866 0070 FFF7FEBF 		b	set_body_led
 867              	.LVL106:
 868              	.L56:
 869              		.cfi_restore_state
 870 0074 FFF7FEFF 		bl	__stack_chk_fail
 871              	.LVL107:
 872              	.L58:
 873              		.align	2
 874              	.L57:
 875 0078 00000000 		.word	__stack_chk_guard
 876              		.cfi_endproc
 877              	.LFE266:
 878              		.size	readyAnimation, .-readyAnimation
 879              		.section	.text.get_stop_fsm,"ax",%progbits
 880              		.align	1
 881              		.p2align 4,,15
 882              		.global	get_stop_fsm
 883              		.syntax unified
 884              		.thumb
 885              		.thumb_func
 886              		.fpu fpv4-sp-d16
 887              		.type	get_stop_fsm, %function
 888              	get_stop_fsm:
 889              	.LFB267:
 890              		.loc 1 256 0
 891              		.cfi_startproc
 892              		@ args = 0, pretend = 0, frame = 8
 893              		@ frame_needed = 0, uses_anonymous_args = 0
 894 0000 00B5     		push	{lr}
 895              		.cfi_def_cfa_offset 4
 896              		.cfi_offset 14, -4
 897 0002 074B     		ldr	r3, .L63
 898              		.loc 1 257 0
 899 0004 0749     		ldr	r1, .L63+4
 900              		.loc 1 256 0
 901 0006 1A68     		ldr	r2, [r3]
 902              		.loc 1 258 0
 903 0008 0878     		ldrb	r0, [r1]	@ zero_extendqisi2
 904              		.loc 1 256 0
 905 000a 83B0     		sub	sp, sp, #12
 906              		.cfi_def_cfa_offset 16
 907              		.loc 1 256 0
 908 000c 0192     		str	r2, [sp, #4]
 909              		.loc 1 258 0
 910 000e 019A     		ldr	r2, [sp, #4]
 911 0010 1B68     		ldr	r3, [r3]
 912 0012 9A42     		cmp	r2, r3
ARM GAS  /var/folders/by/7g7br9lj2xnbkz1cp6hj5p2r0000gn/T//ccBspsC5.s 			page 17


 913 0014 02D1     		bne	.L62
 914 0016 03B0     		add	sp, sp, #12
 915              		.cfi_remember_state
 916              		.cfi_def_cfa_offset 4
 917              		@ sp needed
 918 0018 5DF804FB 		ldr	pc, [sp], #4
 919              	.L62:
 920              		.cfi_restore_state
 921 001c FFF7FEFF 		bl	__stack_chk_fail
 922              	.LVL108:
 923              	.L64:
 924              		.align	2
 925              	.L63:
 926 0020 00000000 		.word	__stack_chk_guard
 927 0024 00000000 		.word	.LANCHOR3
 928              		.cfi_endproc
 929              	.LFE267:
 930              		.size	get_stop_fsm, .-get_stop_fsm
 931              		.section	.text.get_record_allowed_fsm,"ax",%progbits
 932              		.align	1
 933              		.p2align 4,,15
 934              		.global	get_record_allowed_fsm
 935              		.syntax unified
 936              		.thumb
 937              		.thumb_func
 938              		.fpu fpv4-sp-d16
 939              		.type	get_record_allowed_fsm, %function
 940              	get_record_allowed_fsm:
 941              	.LFB268:
 942              		.loc 1 259 0
 943              		.cfi_startproc
 944              		@ args = 0, pretend = 0, frame = 8
 945              		@ frame_needed = 0, uses_anonymous_args = 0
 946 0000 00B5     		push	{lr}
 947              		.cfi_def_cfa_offset 4
 948              		.cfi_offset 14, -4
 949 0002 074B     		ldr	r3, .L69
 950              		.loc 1 260 0
 951 0004 0749     		ldr	r1, .L69+4
 952              		.loc 1 259 0
 953 0006 1A68     		ldr	r2, [r3]
 954              		.loc 1 261 0
 955 0008 0878     		ldrb	r0, [r1]	@ zero_extendqisi2
 956              		.loc 1 259 0
 957 000a 83B0     		sub	sp, sp, #12
 958              		.cfi_def_cfa_offset 16
 959              		.loc 1 259 0
 960 000c 0192     		str	r2, [sp, #4]
 961              		.loc 1 261 0
 962 000e 019A     		ldr	r2, [sp, #4]
 963 0010 1B68     		ldr	r3, [r3]
 964 0012 9A42     		cmp	r2, r3
 965 0014 02D1     		bne	.L68
 966 0016 03B0     		add	sp, sp, #12
 967              		.cfi_remember_state
 968              		.cfi_def_cfa_offset 4
 969              		@ sp needed
ARM GAS  /var/folders/by/7g7br9lj2xnbkz1cp6hj5p2r0000gn/T//ccBspsC5.s 			page 18


 970 0018 5DF804FB 		ldr	pc, [sp], #4
 971              	.L68:
 972              		.cfi_restore_state
 973 001c FFF7FEFF 		bl	__stack_chk_fail
 974              	.LVL109:
 975              	.L70:
 976              		.align	2
 977              	.L69:
 978 0020 00000000 		.word	__stack_chk_guard
 979 0024 00000000 		.word	.LANCHOR4
 980              		.cfi_endproc
 981              	.LFE268:
 982              		.size	get_record_allowed_fsm, .-get_record_allowed_fsm
 983              		.section	.text.get_avoid_allowed_fsm,"ax",%progbits
 984              		.align	1
 985              		.p2align 4,,15
 986              		.global	get_avoid_allowed_fsm
 987              		.syntax unified
 988              		.thumb
 989              		.thumb_func
 990              		.fpu fpv4-sp-d16
 991              		.type	get_avoid_allowed_fsm, %function
 992              	get_avoid_allowed_fsm:
 993              	.LFB269:
 994              		.loc 1 262 0
 995              		.cfi_startproc
 996              		@ args = 0, pretend = 0, frame = 8
 997              		@ frame_needed = 0, uses_anonymous_args = 0
 998 0000 00B5     		push	{lr}
 999              		.cfi_def_cfa_offset 4
 1000              		.cfi_offset 14, -4
 1001 0002 074B     		ldr	r3, .L75
 1002              		.loc 1 263 0
 1003 0004 0749     		ldr	r1, .L75+4
 1004              		.loc 1 262 0
 1005 0006 1A68     		ldr	r2, [r3]
 1006              		.loc 1 264 0
 1007 0008 0878     		ldrb	r0, [r1]	@ zero_extendqisi2
 1008              		.loc 1 262 0
 1009 000a 83B0     		sub	sp, sp, #12
 1010              		.cfi_def_cfa_offset 16
 1011              		.loc 1 262 0
 1012 000c 0192     		str	r2, [sp, #4]
 1013              		.loc 1 264 0
 1014 000e 019A     		ldr	r2, [sp, #4]
 1015 0010 1B68     		ldr	r3, [r3]
 1016 0012 9A42     		cmp	r2, r3
 1017 0014 02D1     		bne	.L74
 1018 0016 03B0     		add	sp, sp, #12
 1019              		.cfi_remember_state
 1020              		.cfi_def_cfa_offset 4
 1021              		@ sp needed
 1022 0018 5DF804FB 		ldr	pc, [sp], #4
 1023              	.L74:
 1024              		.cfi_restore_state
 1025 001c FFF7FEFF 		bl	__stack_chk_fail
 1026              	.LVL110:
ARM GAS  /var/folders/by/7g7br9lj2xnbkz1cp6hj5p2r0000gn/T//ccBspsC5.s 			page 19


 1027              	.L76:
 1028              		.align	2
 1029              	.L75:
 1030 0020 00000000 		.word	__stack_chk_guard
 1031 0024 00000000 		.word	.LANCHOR2
 1032              		.cfi_endproc
 1033              	.LFE269:
 1034              		.size	get_avoid_allowed_fsm, .-get_avoid_allowed_fsm
 1035              		.section	.text.toggle_run,"ax",%progbits
 1036              		.align	1
 1037              		.p2align 4,,15
 1038              		.global	toggle_run
 1039              		.syntax unified
 1040              		.thumb
 1041              		.thumb_func
 1042              		.fpu fpv4-sp-d16
 1043              		.type	toggle_run, %function
 1044              	toggle_run:
 1045              	.LFB270:
 1046              		.loc 1 269 0
 1047              		.cfi_startproc
 1048              		@ args = 0, pretend = 0, frame = 8
 1049              		@ frame_needed = 0, uses_anonymous_args = 0
 1050 0000 00B5     		push	{lr}
 1051              		.cfi_def_cfa_offset 4
 1052              		.cfi_offset 14, -4
 1053 0002 0949     		ldr	r1, .L81
 1054              		.loc 1 270 0
 1055 0004 094A     		ldr	r2, .L81+4
 1056              		.loc 1 269 0
 1057 0006 0868     		ldr	r0, [r1]
 1058              		.loc 1 270 0
 1059 0008 1378     		ldrb	r3, [r2]	@ zero_extendqisi2
 1060              		.loc 1 269 0
 1061 000a 83B0     		sub	sp, sp, #12
 1062              		.cfi_def_cfa_offset 16
 1063              		.loc 1 270 0
 1064 000c B3FA83F3 		clz	r3, r3
 1065              		.loc 1 269 0
 1066 0010 0190     		str	r0, [sp, #4]
 1067              		.loc 1 271 0
 1068 0012 0198     		ldr	r0, [sp, #4]
 1069 0014 0968     		ldr	r1, [r1]
 1070              		.loc 1 270 0
 1071 0016 5B09     		lsrs	r3, r3, #5
 1072              		.loc 1 271 0
 1073 0018 8842     		cmp	r0, r1
 1074              		.loc 1 270 0
 1075 001a 1370     		strb	r3, [r2]
 1076              		.loc 1 271 0
 1077 001c 02D1     		bne	.L80
 1078 001e 03B0     		add	sp, sp, #12
 1079              		.cfi_remember_state
 1080              		.cfi_def_cfa_offset 4
 1081              		@ sp needed
 1082 0020 5DF804FB 		ldr	pc, [sp], #4
 1083              	.L80:
ARM GAS  /var/folders/by/7g7br9lj2xnbkz1cp6hj5p2r0000gn/T//ccBspsC5.s 			page 20


 1084              		.cfi_restore_state
 1085 0024 FFF7FEFF 		bl	__stack_chk_fail
 1086              	.LVL111:
 1087              	.L82:
 1088              		.align	2
 1089              	.L81:
 1090 0028 00000000 		.word	__stack_chk_guard
 1091 002c 00000000 		.word	.LANCHOR1
 1092              		.cfi_endproc
 1093              	.LFE270:
 1094              		.size	toggle_run, .-toggle_run
 1095              		.section	.text.startup.main,"ax",%progbits
 1096              		.align	1
 1097              		.p2align 4,,15
 1098              		.global	main
 1099              		.syntax unified
 1100              		.thumb
 1101              		.thumb_func
 1102              		.fpu fpv4-sp-d16
 1103              		.type	main, %function
 1104              	main:
 1105              	.LFB271:
 1106              		.loc 1 277 0
 1107              		.cfi_startproc
 1108              		@ Volatile: function does not return.
 1109              		@ args = 0, pretend = 0, frame = 8
 1110              		@ frame_needed = 0, uses_anonymous_args = 0
 1111 0000 00B5     		push	{lr}
 1112              		.cfi_def_cfa_offset 4
 1113              		.cfi_offset 14, -4
 1114 0002 244B     		ldr	r3, .L87
 1115 0004 85B0     		sub	sp, sp, #20
 1116              		.cfi_def_cfa_offset 24
 1117              		.loc 1 277 0
 1118 0006 1B68     		ldr	r3, [r3]
 1119 0008 0393     		str	r3, [sp, #12]
 1120              		.loc 1 279 0
 1121 000a FFF7FEFF 		bl	halInit
 1122              	.LVL112:
 1123              		.loc 1 280 0
 1124 000e FFF7FEFF 		bl	chSysInit
 1125              	.LVL113:
 1126              		.loc 1 281 0
 1127 0012 FFF7FEFF 		bl	mpu_init
 1128              	.LVL114:
 1129              		.loc 1 284 0
 1130 0016 204A     		ldr	r2, .L87+4
 1131 0018 2049     		ldr	r1, .L87+8
 1132 001a 2148     		ldr	r0, .L87+12
 1133 001c FFF7FEFF 		bl	messagebus_init
 1134              	.LVL115:
 1135              	.LBB20:
 1136              	.LBB21:
 1137              		.loc 1 214 0
 1138 0020 2049     		ldr	r1, .L87+16
 1139 0022 2148     		ldr	r0, .L87+20
 1140 0024 FFF7FEFF 		bl	sdStart
ARM GAS  /var/folders/by/7g7br9lj2xnbkz1cp6hj5p2r0000gn/T//ccBspsC5.s 			page 21


 1141              	.LVL116:
 1142              	.LBE21:
 1143              	.LBE20:
 1144              		.loc 1 321 0
 1145 0028 0024     		movs	r4, #0
 1146              		.loc 1 288 0
 1147 002a FFF7FEFF 		bl	usb_start
 1148              	.LVL117:
 1149              		.loc 1 290 0
 1150 002e FFF7FEFF 		bl	dac_start
 1151              	.LVL118:
 1152              		.loc 1 292 0
 1153 0032 FFF7FEFF 		bl	spi_comm_start
 1154              	.LVL119:
 1155              		.loc 1 294 0
 1156 0036 FFF7FEFF 		bl	dcmi_start
 1157              	.LVL120:
 1158              		.loc 1 295 0
 1159 003a FFF7FEFF 		bl	po8030_start
 1160              	.LVL121:
 1161              		.loc 1 299 0
 1162 003e FFF7FEFF 		bl	proximity_start
 1163              	.LVL122:
 1164              		.loc 1 300 0
 1165 0042 FFF7FEFF 		bl	calibrate_ir
 1166              	.LVL123:
 1167              		.loc 1 303 0
 1168 0046 FFF7FEFF 		bl	motors_init
 1169              	.LVL124:
 1170              		.loc 1 305 0
 1171 004a FFF7FEFF 		bl	readyAnimation
 1172              	.LVL125:
 1173              		.loc 1 308 0
 1174 004e FFF7FEFF 		bl	VL53L0X_start
 1175              	.LVL126:
 1176              		.loc 1 311 0
 1177 0052 1648     		ldr	r0, .L87+24
 1178 0054 FFF7FEFF 		bl	mic_start
 1179              	.LVL127:
 1180              		.loc 1 314 0
 1181 0058 FFF7FEFF 		bl	pi_regulator_start
 1182              	.LVL128:
 1183              		.loc 1 315 0
 1184 005c FFF7FEFF 		bl	process_image_start
 1185              	.LVL129:
 1186              		.loc 1 318 0
 1187 0060 FFF7FEFF 		bl	proxi_start
 1188              	.LVL130:
 1189              		.loc 1 321 0
 1190 0064 124B     		ldr	r3, .L87+28
 1191 0066 0094     		str	r4, [sp]
 1192 0068 4022     		movs	r2, #64
 1193 006a 4FF41E71 		mov	r1, #632
 1194 006e 1148     		ldr	r0, .L87+32
 1195 0070 FFF7FEFF 		bl	chThdCreateStatic
 1196              	.LVL131:
 1197              		.loc 1 324 0
ARM GAS  /var/folders/by/7g7br9lj2xnbkz1cp6hj5p2r0000gn/T//ccBspsC5.s 			page 22


 1198 0074 104B     		ldr	r3, .L87+36
 1199 0076 0094     		str	r4, [sp]
 1200 0078 4022     		movs	r2, #64
 1201 007a 4FF41E71 		mov	r1, #632
 1202 007e 0F48     		ldr	r0, .L87+40
 1203 0080 FFF7FEFF 		bl	chThdCreateStatic
 1204              	.LVL132:
 1205              		.loc 1 327 0
 1206 0084 FFF7FEFF 		bl	playMelodyStart
 1207              	.LVL133:
 1208              	.L84:
 1209              		.loc 1 332 0 discriminator 1
 1210 0088 4FF47A70 		mov	r0, #1000
 1211 008c FFF7FEFF 		bl	chThdSleep
 1212              	.LVL134:
 1213 0090 FAE7     		b	.L84
 1214              	.L88:
 1215 0092 00BF     		.align	2
 1216              	.L87:
 1217 0094 00000000 		.word	__stack_chk_guard
 1218 0098 00000000 		.word	.LANCHOR6
 1219 009c 00000000 		.word	.LANCHOR7
 1220 00a0 00000000 		.word	.LANCHOR8
 1221 00a4 00000000 		.word	.LANCHOR9
 1222 00a8 00000000 		.word	SD3
 1223 00ac 00000000 		.word	processAudioData
 1224 00b0 00000000 		.word	Blinker
 1225 00b4 00000000 		.word	.LANCHOR10
 1226 00b8 00000000 		.word	fsm
 1227 00bc 00000000 		.word	.LANCHOR11
 1228              		.cfi_endproc
 1229              	.LFE271:
 1230              		.size	main, .-main
 1231              		.section	.text.__stack_chk_fail,"ax",%progbits
 1232              		.align	1
 1233              		.p2align 4,,15
 1234              		.global	__stack_chk_fail
 1235              		.syntax unified
 1236              		.thumb
 1237              		.thumb_func
 1238              		.fpu fpv4-sp-d16
 1239              		.type	__stack_chk_fail, %function
 1240              	__stack_chk_fail:
 1241              	.LFB272:
 1242              		.loc 1 341 0
 1243              		.cfi_startproc
 1244              		@ args = 0, pretend = 0, frame = 8
 1245              		@ frame_needed = 0, uses_anonymous_args = 0
 1246 0000 00B5     		push	{lr}
 1247              		.cfi_def_cfa_offset 4
 1248              		.cfi_offset 14, -4
 1249 0002 084B     		ldr	r3, .L94
 1250 0004 83B0     		sub	sp, sp, #12
 1251              		.cfi_def_cfa_offset 16
 1252              		.loc 1 341 0
 1253 0006 1A68     		ldr	r2, [r3]
 1254 0008 0192     		str	r2, [sp, #4]
ARM GAS  /var/folders/by/7g7br9lj2xnbkz1cp6hj5p2r0000gn/T//ccBspsC5.s 			page 23


 1255              		.loc 1 342 0
 1256 000a 019A     		ldr	r2, [sp, #4]
 1257 000c 1B68     		ldr	r3, [r3]
 1258 000e 9A42     		cmp	r2, r3
 1259 0010 05D1     		bne	.L93
 1260 0012 0548     		ldr	r0, .L94+4
 1261              		.loc 1 343 0
 1262 0014 03B0     		add	sp, sp, #12
 1263              		.cfi_remember_state
 1264              		.cfi_def_cfa_offset 4
 1265              		@ sp needed
 1266 0016 5DF804EB 		ldr	lr, [sp], #4
 1267              		.cfi_restore 14
 1268              		.cfi_def_cfa_offset 0
 1269              		.loc 1 342 0
 1270 001a FFF7FEBF 		b	chSysHalt
 1271              	.LVL135:
 1272              	.L93:
 1273              		.cfi_restore_state
 1274 001e FFF7FEFF 		bl	__stack_chk_fail
 1275              	.LVL136:
 1276              	.L95:
 1277 0022 00BF     		.align	2
 1278              	.L94:
 1279 0024 00000000 		.word	__stack_chk_guard
 1280 0028 00000000 		.word	.LC1
 1281              		.cfi_endproc
 1282              	.LFE272:
 1283              		.size	__stack_chk_fail, .-__stack_chk_fail
 1284              		.global	__stack_chk_guard
 1285              		.global	bus_condvar
 1286              		.global	bus_lock
 1287              		.global	bus
 1288              		.section	.bss.bus,"aw",%nobits
 1289              		.align	2
 1290              		.set	.LANCHOR8,. + 0
 1291              		.type	bus, %object
 1292              		.size	bus, 12
 1293              	bus:
 1294 0000 00000000 		.space	12
 1294      00000000 
 1294      00000000 
 1295              		.section	.bss.run,"aw",%nobits
 1296              		.set	.LANCHOR1,. + 0
 1297              		.type	run, %object
 1298              		.size	run, 1
 1299              	run:
 1300 0000 00       		.space	1
 1301              		.section	.bss.stop,"aw",%nobits
 1302              		.set	.LANCHOR3,. + 0
 1303              		.type	stop, %object
 1304              		.size	stop, 1
 1305              	stop:
 1306 0000 00       		.space	1
 1307              		.section	.bss.waBlinker,"aw",%nobits
 1308              		.align	3
 1309              		.set	.LANCHOR10,. + 0
ARM GAS  /var/folders/by/7g7br9lj2xnbkz1cp6hj5p2r0000gn/T//ccBspsC5.s 			page 24


 1310              		.type	waBlinker, %object
 1311              		.size	waBlinker, 632
 1312              	waBlinker:
 1313 0000 00000000 		.space	632
 1313      00000000 
 1313      00000000 
 1313      00000000 
 1313      00000000 
 1314              		.section	.bss.wafsm,"aw",%nobits
 1315              		.align	3
 1316              		.set	.LANCHOR11,. + 0
 1317              		.type	wafsm, %object
 1318              		.size	wafsm, 632
 1319              	wafsm:
 1320 0000 00000000 		.space	632
 1320      00000000 
 1320      00000000 
 1320      00000000 
 1320      00000000 
 1321              		.section	.data.__stack_chk_guard,"aw",%progbits
 1322              		.align	2
 1323              		.type	__stack_chk_guard, %object
 1324              		.size	__stack_chk_guard, 4
 1325              	__stack_chk_guard:
 1326 0000 96E3DEE2 		.word	-488709226
 1327              		.section	.data.avoid_allowed,"aw",%progbits
 1328              		.set	.LANCHOR2,. + 0
 1329              		.type	avoid_allowed, %object
 1330              		.size	avoid_allowed, 1
 1331              	avoid_allowed:
 1332 0000 01       		.byte	1
 1333              		.section	.data.bus_condvar,"aw",%progbits
 1334              		.align	2
 1335              		.set	.LANCHOR6,. + 0
 1336              		.type	bus_condvar, %object
 1337              		.size	bus_condvar, 8
 1338              	bus_condvar:
 1339 0000 00000000 		.word	bus_condvar
 1340 0004 00000000 		.word	bus_condvar
 1341              		.section	.data.bus_lock,"aw",%progbits
 1342              		.align	2
 1343              		.set	.LANCHOR7,. + 0
 1344              		.type	bus_lock, %object
 1345              		.size	bus_lock, 20
 1346              	bus_lock:
 1347 0000 00000000 		.word	bus_lock
 1348 0004 00000000 		.word	bus_lock
 1349 0008 00000000 		.word	0
 1350 000c 00000000 		.word	0
 1351 0010 00000000 		.word	0
 1352              		.section	.data.record_allowed,"aw",%progbits
 1353              		.set	.LANCHOR4,. + 0
 1354              		.type	record_allowed, %object
 1355              		.size	record_allowed, 1
 1356              	record_allowed:
 1357 0000 01       		.byte	1
 1358              		.section	.data.ser_cfg.13590,"aw",%progbits
ARM GAS  /var/folders/by/7g7br9lj2xnbkz1cp6hj5p2r0000gn/T//ccBspsC5.s 			page 25


 1359              		.align	2
 1360              		.set	.LANCHOR9,. + 0
 1361              		.type	ser_cfg.13590, %object
 1362              		.size	ser_cfg.13590, 12
 1363              	ser_cfg.13590:
 1364 0000 00C20100 		.word	115200
 1365 0004 0000     		.short	0
 1366 0006 0000     		.short	0
 1367 0008 0000     		.short	0
 1368 000a 0000     		.space	2
 1369              		.section	.rodata.SendUint8ToComputer.str1.4,"aMS",%progbits,1
 1370              		.align	2
 1371              	.LC0:
 1372 0000 53544152 		.ascii	"START\000"
 1372      5400
 1373              		.section	.rodata.__FUNCTION__.13564,"a",%progbits
 1374              		.align	2
 1375              		.set	.LANCHOR0,. + 0
 1376              		.type	__FUNCTION__.13564, %object
 1377              		.size	__FUNCTION__.13564, 4
 1378              	__FUNCTION__.13564:
 1379 0000 66736D00 		.ascii	"fsm\000"
 1380              		.section	.rodata.__FUNCTION__.13574,"a",%progbits
 1381              		.align	2
 1382              		.set	.LANCHOR5,. + 0
 1383              		.type	__FUNCTION__.13574, %object
 1384              		.size	__FUNCTION__.13574, 8
 1385              	__FUNCTION__.13574:
 1386 0000 426C696E 		.ascii	"Blinker\000"
 1386      6B657200 
 1387              		.section	.rodata.__stack_chk_fail.str1.4,"aMS",%progbits,1
 1388              		.align	2
 1389              	.LC1:
 1390 0000 53746163 		.ascii	"Stack smashing detected\000"
 1390      6B20736D 
 1390      61736869 
 1390      6E672064 
 1390      65746563 
 1391              		.text
 1392              	.Letext0:
 1393              		.file 3 "/Applications/Eclipse_e-puck2.app/Contents/Eclipse_e-puck2/Tools/gcc-arm-none-eabi-7-2017
 1394              		.file 4 "/Applications/Eclipse_e-puck2.app/Contents/Eclipse_e-puck2/Tools/gcc-arm-none-eabi-7-2017
 1395              		.file 5 "/Applications/Eclipse_e-puck2.app/Contents/Eclipse_e-puck2/Tools/gcc-arm-none-eabi-7-2017
 1396              		.file 6 "/Applications/Eclipse_e-puck2.app/Contents/Eclipse_e-puck2/Tools/gcc-arm-none-eabi-7-2017
 1397              		.file 7 "/Applications/Eclipse_e-puck2.app/Contents/Eclipse_e-puck2/Tools/gcc-arm-none-eabi-7-2017
 1398              		.file 8 "/Applications/Eclipse_e-puck2.app/Contents/Eclipse_e-puck2/Tools/gcc-arm-none-eabi-7-2017
 1399              		.file 9 "/Applications/Eclipse_e-puck2.app/Contents/Eclipse_e-puck2/Tools/gcc-arm-none-eabi-7-2017
 1400              		.file 10 "/Applications/Eclipse_e-puck2.app/Contents/Eclipse_e-puck2/Tools/gcc-arm-none-eabi-7-201
 1401              		.file 11 "../../lib/e-puck2_main-processor/ChibiOS//os/rt/ports/ARMCMx/compilers/GCC/chtypes.h"
 1402              		.file 12 "../../lib/e-puck2_main-processor/ChibiOS//os/rt/include/chsystypes.h"
 1403              		.file 13 "../../lib/e-puck2_main-processor/ChibiOS//os/rt/include/chschd.h"
 1404              		.file 14 "../../lib/e-puck2_main-processor/ChibiOS//os/ext/CMSIS/include/core_cm4.h"
 1405              		.file 15 "../../lib/e-puck2_main-processor/ChibiOS//os/ext/CMSIS/ST/system_stm32f4xx.h"
 1406              		.file 16 "../../lib/e-puck2_main-processor/ChibiOS//os/ext/CMSIS/ST/stm32f407xx.h"
 1407              		.file 17 "../../lib/e-puck2_main-processor/ChibiOS//os/rt/ports/ARMCMx/chcore.h"
 1408              		.file 18 "../../lib/e-puck2_main-processor/ChibiOS//os/rt/ports/ARMCMx/chcore_v7m.h"
 1409              		.file 19 "../../lib/e-puck2_main-processor/ChibiOS//os/rt/include/chdebug.h"
ARM GAS  /var/folders/by/7g7br9lj2xnbkz1cp6hj5p2r0000gn/T//ccBspsC5.s 			page 26


 1410              		.file 20 "../../lib/e-puck2_main-processor/ChibiOS//os/rt/include/chtm.h"
 1411              		.file 21 "../../lib/e-puck2_main-processor/ChibiOS//os/rt/include/chstats.h"
 1412              		.file 22 "../../lib/e-puck2_main-processor/ChibiOS//os/rt/include/chsem.h"
 1413              		.file 23 "../../lib/e-puck2_main-processor/ChibiOS//os/rt/include/chmtx.h"
 1414              		.file 24 "../../lib/e-puck2_main-processor/ChibiOS//os/rt/include/chcond.h"
 1415              		.file 25 "../../lib/e-puck2_main-processor/ChibiOS//os/rt/include/chevents.h"
 1416              		.file 26 "../../lib/e-puck2_main-processor/ChibiOS//os/rt/include/chqueues.h"
 1417              		.file 27 "../../lib/e-puck2_main-processor/ChibiOS//os/rt/include/chstreams.h"
 1418              		.file 28 "../../lib/e-puck2_main-processor/ChibiOS//os/hal/ports/STM32/STM32F4xx/stm32_dma.h"
 1419              		.file 29 "../../lib/e-puck2_main-processor/ChibiOS//os/hal/include/hal_ioblock.h"
 1420              		.file 30 "../../lib/e-puck2_main-processor/ChibiOS//os/hal/ports/STM32/LLD/GPIOv2/pal_lld.h"
 1421              		.file 31 "../../lib/e-puck2_main-processor/ChibiOS//os/hal/include/adc.h"
 1422              		.file 32 "../../lib/e-puck2_main-processor/ChibiOS//os/hal/ports/STM32/STM32F4xx/adc_lld.h"
 1423              		.file 33 "../../lib/e-puck2_main-processor/ChibiOS//os/hal/include/can.h"
 1424              		.file 34 "../../lib/e-puck2_main-processor/ChibiOS//os/hal/ports/STM32/LLD/can_lld.h"
 1425              		.file 35 "../../lib/e-puck2_main-processor/ChibiOS//os/hal/include/dac.h"
 1426              		.file 36 "../../lib/e-puck2_main-processor/ChibiOS//os/hal/ports/STM32/LLD/DACv1/dac_lld.h"
 1427              		.file 37 "../../lib/e-puck2_main-processor/ChibiOS//os/hal/include/ext.h"
 1428              		.file 38 "../../lib/e-puck2_main-processor/ChibiOS//os/hal/ports/STM32/LLD/ext_lld.h"
 1429              		.file 39 "../../lib/e-puck2_main-processor/ChibiOS//os/hal/include/gpt.h"
 1430              		.file 40 "../../lib/e-puck2_main-processor/ChibiOS//os/hal/ports/STM32/LLD/TIMv1/gpt_lld.h"
 1431              		.file 41 "../../lib/e-puck2_main-processor/ChibiOS//os/hal/ports/STM32/LLD/TIMv1/stm32_tim.h"
 1432              		.file 42 "../../lib/e-puck2_main-processor/ChibiOS//os/hal/include/i2c.h"
 1433              		.file 43 "../../lib/e-puck2_main-processor/ChibiOS//os/hal/ports/STM32/LLD/I2Cv1/i2c_lld.h"
 1434              		.file 44 "../../lib/e-puck2_main-processor/ChibiOS//os/hal/include/i2s.h"
 1435              		.file 45 "../../lib/e-puck2_main-processor/ChibiOS//os/hal/ports/STM32/LLD/SPIv1/i2s_lld.h"
 1436              		.file 46 "../../lib/e-puck2_main-processor/ChibiOS//os/hal/include/pwm.h"
 1437              		.file 47 "../../lib/e-puck2_main-processor/ChibiOS//os/hal/ports/STM32/LLD/TIMv1/pwm_lld.h"
 1438              		.file 48 "../../lib/e-puck2_main-processor/ChibiOS//os/hal/include/serial.h"
 1439              		.file 49 "../../lib/e-puck2_main-processor/ChibiOS//os/hal/ports/STM32/LLD/USARTv1/serial_lld.h"
 1440              		.file 50 "../../lib/e-puck2_main-processor/ChibiOS//os/hal/include/sdc.h"
 1441              		.file 51 "../../lib/e-puck2_main-processor/ChibiOS//os/hal/ports/STM32/LLD/sdc_lld.h"
 1442              		.file 52 "../../lib/e-puck2_main-processor/ChibiOS//os/hal/include/spi.h"
 1443              		.file 53 "../../lib/e-puck2_main-processor/ChibiOS//os/hal/ports/STM32/LLD/SPIv1/spi_lld.h"
 1444              		.file 54 "../../lib/e-puck2_main-processor/ChibiOS//os/hal/include/usb.h"
 1445              		.file 55 "../../lib/e-puck2_main-processor/ChibiOS//os/hal/ports/STM32/LLD/OTGv1/usb_lld.h"
 1446              		.file 56 "../../lib/e-puck2_main-processor/ChibiOS//os/hal/ports/STM32/LLD/OTGv1/stm32_otg.h"
 1447              		.file 57 "../../lib/e-puck2_main-processor/ChibiOS//os/hal/include/serial_usb.h"
 1448              		.file 58 "../../lib/e-puck2_main-processor/src/usbcfg.h"
 1449              		.file 59 "../../lib/e-puck2_main-processor/ChibiOS_ext/os/hal/include/../ports/STM32/STM32F4xx/dcm
 1450              		.file 60 "/Applications/Eclipse_e-puck2.app/Contents/Eclipse_e-puck2/Tools/gcc-arm-none-eabi-7-201
 1451              		.file 61 "../../lib/e-puck2_main-processor/src/msgbus/messagebus.h"
 1452              		.file 62 "../../lib/e-puck2_main-processor/src/parameter/parameter.h"
 1453              		.file 63 "main.h"
 1454              		.file 64 "../../lib/e-puck2_main-processor/src/leds.h"
 1455              		.file 65 "../../lib/e-puck2_main-processor/ChibiOS//os/rt/include/chsys.h"
 1456              		.file 66 "../../lib/e-puck2_main-processor/ChibiOS//os/hal/include/hal.h"
 1457              		.file 67 "../../lib/e-puck2_main-processor/src/memory_protection.h"
 1458              		.file 68 "../../lib/e-puck2_main-processor/src/camera/dcmi_camera.h"
 1459              		.file 69 "../../lib/e-puck2_main-processor/src/camera/po8030.h"
 1460              		.file 70 "../../lib/e-puck2_main-processor/src/sensors/proximity.h"
 1461              		.file 71 "../../lib/e-puck2_main-processor/src/motors.h"
 1462              		.file 72 "../../lib/e-puck2_main-processor/src/sensors/VL53L0X/VL53L0X.h"
 1463              		.file 73 "../../lib/e-puck2_main-processor/src/audio/microphone.h"
 1464              		.file 74 "pi_regulator.h"
 1465              		.file 75 "proximity_detection.h"
 1466              		.file 76 "../../lib/e-puck2_main-processor/ChibiOS//os/rt/include/chthreads.h"
ARM GAS  /var/folders/by/7g7br9lj2xnbkz1cp6hj5p2r0000gn/T//ccBspsC5.s 			page 27


 1467              		.file 77 "../../lib/e-puck2_main-processor/src/audio/play_melody.h"
 1468              		.file 78 "process_image.h"