ARM GAS  /var/folders/by/7g7br9lj2xnbkz1cp6hj5p2r0000gn/T//ccx09qXr.s 			page 1


   1              		.cpu cortex-m4
   2              		.eabi_attribute 27, 1
   3              		.eabi_attribute 28, 1
   4              		.eabi_attribute 20, 1
   5              		.eabi_attribute 21, 1
   6              		.eabi_attribute 23, 3
   7              		.eabi_attribute 24, 1
   8              		.eabi_attribute 25, 1
   9              		.eabi_attribute 26, 1
  10              		.eabi_attribute 30, 2
  11              		.eabi_attribute 34, 1
  12              		.eabi_attribute 18, 4
  13              		.file	"noise_detection.c"
  14              		.text
  15              	.Ltext0:
  16              		.cfi_sections	.debug_frame
  17              		.section	.text.sound_remote,"ax",%progbits
  18              		.align	1
  19              		.p2align 4,,15
  20              		.global	sound_remote
  21              		.syntax unified
  22              		.thumb
  23              		.thumb_func
  24              		.fpu fpv4-sp-d16
  25              		.type	sound_remote, %function
  26              	sound_remote:
  27              	.LFB290:
  28              		.file 1 "noise_detection.c"
  29              		.loc 1 42 0
  30              		.cfi_startproc
  31              		@ args = 0, pretend = 0, frame = 8
  32              		@ frame_needed = 0, uses_anonymous_args = 0
  33              	.LVL0:
  34 0000 00B5     		push	{lr}
  35              		.cfi_def_cfa_offset 4
  36              		.cfi_offset 14, -4
  37 0002 1549     		ldr	r1, .L13
  38              		.loc 1 43 0
  39 0004 9FED157A 		vldr.32	s14, .L13+4
  40              		.loc 1 42 0
  41 0008 0B68     		ldr	r3, [r1]
  42 000a 83B0     		sub	sp, sp, #12
  43              		.cfi_def_cfa_offset 16
  44 000c 00F5B470 		add	r0, r0, #360
  45              	.LVL1:
  46              		.loc 1 42 0
  47 0010 0193     		str	r3, [sp, #4]
  48              	.LVL2:
  49              		.loc 1 44 0
  50 0012 4FF0FF32 		mov	r2, #-1
  51              		.loc 1 42 0
  52 0016 5A23     		movs	r3, #90
  53              	.LVL3:
  54              	.L4:
  55              	.LBB6:
  56              		.loc 1 49 0
  57 0018 F0EC017A 		vldmia.32	r0!, {s15}
ARM GAS  /var/folders/by/7g7br9lj2xnbkz1cp6hj5p2r0000gn/T//ccx09qXr.s 			page 2


  58 001c F4EEC77A 		vcmpe.f32	s15, s14
  59 0020 F1EE10FA 		vmrs	APSR_nzcv, FPSCR
  60              	.LVL4:
  61              		.loc 1 51 0
  62 0024 C8BF     		it	gt
  63 0026 1AB2     		sxthgt	r2, r3
  64              	.LVL5:
  65 0028 03F10103 		add	r3, r3, #1
  66              	.LVL6:
  67              		.loc 1 50 0
  68 002c C8BF     		it	gt
  69 002e B0EE677A 		vmovgt.f32	s14, s15
  70              	.LVL7:
  71              		.loc 1 48 0
  72 0032 6F2B     		cmp	r3, #111
  73 0034 F0D1     		bne	.L4
  74              	.LBE6:
  75              		.loc 1 55 0
  76 0036 5A3A     		subs	r2, r2, #90
  77 0038 92B2     		uxth	r2, r2
  78 003a 142A     		cmp	r2, #20
  79              		.loc 1 56 0
  80 003c 084B     		ldr	r3, .L13+8
  81 003e 94BF     		ite	ls
  82 0040 0122     		movls	r2, #1
  83              		.loc 1 60 0
  84 0042 0022     		movhi	r2, #0
  85 0044 1A70     		strb	r2, [r3]
  86              		.loc 1 63 0
  87 0046 019A     		ldr	r2, [sp, #4]
  88 0048 0B68     		ldr	r3, [r1]
  89 004a 9A42     		cmp	r2, r3
  90 004c 02D1     		bne	.L12
  91 004e 03B0     		add	sp, sp, #12
  92              		.cfi_remember_state
  93              		.cfi_def_cfa_offset 4
  94              		@ sp needed
  95 0050 5DF804FB 		ldr	pc, [sp], #4
  96              	.L12:
  97              		.cfi_restore_state
  98 0054 FFF7FEFF 		bl	__stack_chk_fail
  99              	.LVL8:
 100              	.L14:
 101              		.align	2
 102              	.L13:
 103 0058 00000000 		.word	__stack_chk_guard
 104 005c 00401C46 		.word	1176256512
 105 0060 00000000 		.word	.LANCHOR0
 106              		.cfi_endproc
 107              	.LFE290:
 108              		.size	sound_remote, .-sound_remote
 109              		.section	.text.processAudioData,"ax",%progbits
 110              		.align	1
 111              		.p2align 4,,15
 112              		.global	processAudioData
 113              		.syntax unified
 114              		.thumb
ARM GAS  /var/folders/by/7g7br9lj2xnbkz1cp6hj5p2r0000gn/T//ccx09qXr.s 			page 3


 115              		.thumb_func
 116              		.fpu fpv4-sp-d16
 117              		.type	processAudioData, %function
 118              	processAudioData:
 119              	.LFB291:
 120              		.loc 1 74 0
 121              		.cfi_startproc
 122              		@ args = 0, pretend = 0, frame = 8
 123              		@ frame_needed = 0, uses_anonymous_args = 0
 124              	.LVL9:
 125 0000 F0B5     		push	{r4, r5, r6, r7, lr}
 126              		.cfi_def_cfa_offset 20
 127              		.cfi_offset 4, -20
 128              		.cfi_offset 5, -16
 129              		.cfi_offset 6, -12
 130              		.cfi_offset 7, -8
 131              		.cfi_offset 14, -4
 132 0002 514C     		ldr	r4, .L42
 133 0004 514E     		ldr	r6, .L42+4
 134 0006 2368     		ldr	r3, [r4]
 135 0008 83B0     		sub	sp, sp, #12
 136              		.cfi_def_cfa_offset 32
 137              		.loc 1 74 0
 138 000a 0193     		str	r3, [sp, #4]
 139              	.LVL10:
 140 000c 3388     		ldrh	r3, [r6]
 141              	.LBB7:
 142              		.loc 1 87 0
 143 000e 0029     		cmp	r1, #0
 144 0010 00F09280 		beq	.L16
 145              		.loc 1 90 0
 146 0014 B0F90220 		ldrsh	r2, [r0, #2]
 147 0018 4D4D     		ldr	r5, .L42+8
 148 001a 07EE902A 		vmov	s15, r2	@ int
 149              		.loc 1 92 0
 150 001e 5A1C     		adds	r2, r3, #1
 151              		.loc 1 90 0
 152 0020 05EB8307 		add	r7, r5, r3, lsl #2
 153              		.loc 1 94 0
 154 0024 92B2     		uxth	r2, r2
 155              		.loc 1 96 0
 156 0026 0233     		adds	r3, r3, #2
 157 0028 9BB2     		uxth	r3, r3
 158              		.loc 1 90 0
 159 002a F8EEE77A 		vcvt.f32.s32	s15, s15
 160              		.loc 1 94 0
 161 002e 05EB8202 		add	r2, r5, r2, lsl #2
 162 0032 4FF0000E 		mov	lr, #0
 163              		.loc 1 99 0
 164 0036 B3F5006F 		cmp	r3, #2048
 165              		.loc 1 90 0
 166 003a C7ED007A 		vstr.32	s15, [r7]
 167              		.loc 1 96 0
 168 003e 3380     		strh	r3, [r6]	@ movhi
 169              		.loc 1 94 0
 170 0040 C2F800E0 		str	lr, [r2]	@ float
 171              		.loc 1 99 0
ARM GAS  /var/folders/by/7g7br9lj2xnbkz1cp6hj5p2r0000gn/T//ccx09qXr.s 			page 4


 172 0044 2CD2     		bcs	.L17
 173 0046 0139     		subs	r1, r1, #1
 174              	.LVL11:
 175 0048 C1F38D01 		ubfx	r1, r1, #2, #14
 176 004c 00EBC101 		add	r1, r0, r1, lsl #3
 177 0050 0027     		movs	r7, #0
 178 0052 1AE0     		b	.L18
 179              	.LVL12:
 180              	.L20:
 181              		.loc 1 90 0
 182 0054 B0F90A20 		ldrsh	r2, [r0, #10]
 183 0058 07EE902A 		vmov	s15, r2	@ int
 184              		.loc 1 94 0
 185 005c 5A1C     		adds	r2, r3, #1
 186 005e 92B2     		uxth	r2, r2
 187              		.loc 1 96 0
 188 0060 03F1020C 		add	ip, r3, #2
 189              		.loc 1 90 0
 190 0064 05EB8307 		add	r7, r5, r3, lsl #2
 191 0068 F8EEE77A 		vcvt.f32.s32	s15, s15
 192              		.loc 1 94 0
 193 006c 05EB8202 		add	r2, r5, r2, lsl #2
 194              		.loc 1 96 0
 195 0070 1FFA8CF3 		uxth	r3, ip
 196              		.loc 1 99 0
 197 0074 B3F5006F 		cmp	r3, #2048
 198              		.loc 1 90 0
 199 0078 C7ED007A 		vstr.32	s15, [r7]
 200 007c 00F10800 		add	r0, r0, #8
 201 0080 4FF00107 		mov	r7, #1
 202              		.loc 1 94 0
 203 0084 C2F800E0 		str	lr, [r2]	@ float
 204              		.loc 1 99 0
 205 0088 09D2     		bcs	.L19
 206              	.L18:
 207              		.loc 1 87 0 discriminator 2
 208 008a 8842     		cmp	r0, r1
 209 008c E2D1     		bne	.L20
 210 008e 002F     		cmp	r7, #0
 211 0090 56D1     		bne	.L39
 212              	.L15:
 213              	.LBE7:
 214              		.loc 1 151 0
 215 0092 019A     		ldr	r2, [sp, #4]
 216 0094 2368     		ldr	r3, [r4]
 217 0096 9A42     		cmp	r2, r3
 218 0098 54D1     		bne	.L40
 219 009a 03B0     		add	sp, sp, #12
 220              		.cfi_remember_state
 221              		.cfi_def_cfa_offset 20
 222              		@ sp needed
 223 009c F0BD     		pop	{r4, r5, r6, r7, pc}
 224              	.L19:
 225              		.cfi_restore_state
 226 009e 3380     		strh	r3, [r6]	@ movhi
 227              	.L17:
 228              		.loc 1 111 0
ARM GAS  /var/folders/by/7g7br9lj2xnbkz1cp6hj5p2r0000gn/T//ccx09qXr.s 			page 5


 229 00a0 2B49     		ldr	r1, .L42+8
 230 00a2 4FF48060 		mov	r0, #1024
 231 00a6 FFF7FEFF 		bl	doFFT_optimized
 232              	.LVL13:
 233              		.loc 1 122 0
 234 00aa 4FF48062 		mov	r2, #1024
 235 00ae 2949     		ldr	r1, .L42+12
 236 00b0 2748     		ldr	r0, .L42+8
 237 00b2 FFF7FEFF 		bl	arm_cmplx_mag_f32
 238              	.LVL14:
 239              		.loc 1 124 0
 240 00b6 0023     		movs	r3, #0
 241 00b8 274A     		ldr	r2, .L42+16
 242              	.LBB8:
 243              	.LBB9:
 244              		.loc 1 43 0
 245 00ba 9FED287A 		vldr.32	s14, .L42+20
 246              	.LBE9:
 247              	.LBE8:
 248              		.loc 1 124 0
 249 00be 3380     		strh	r3, [r6]	@ movhi
 250              	.LVL15:
 251              	.LBB16:
 252              	.LBB11:
 253              		.loc 1 44 0
 254 00c0 4FF0FF31 		mov	r1, #-1
 255              	.LBE11:
 256              	.LBE16:
 257              		.loc 1 124 0
 258 00c4 5A23     		movs	r3, #90
 259              	.LVL16:
 260              	.L24:
 261              	.LBB17:
 262              	.LBB12:
 263              	.LBB10:
 264              		.loc 1 49 0
 265 00c6 F2EC017A 		vldmia.32	r2!, {s15}
 266 00ca F4EEC77A 		vcmpe.f32	s15, s14
 267 00ce F1EE10FA 		vmrs	APSR_nzcv, FPSCR
 268              	.LVL17:
 269              		.loc 1 51 0
 270 00d2 C8BF     		it	gt
 271 00d4 19B2     		sxthgt	r1, r3
 272              	.LVL18:
 273 00d6 03F10103 		add	r3, r3, #1
 274              	.LVL19:
 275              		.loc 1 50 0
 276 00da C8BF     		it	gt
 277 00dc B0EE677A 		vmovgt.f32	s14, s15
 278              	.LVL20:
 279              		.loc 1 48 0
 280 00e0 6F2B     		cmp	r3, #111
 281 00e2 F0D1     		bne	.L24
 282              	.LBE10:
 283              		.loc 1 55 0
 284 00e4 5A39     		subs	r1, r1, #90
 285 00e6 1E4D     		ldr	r5, .L42+24
ARM GAS  /var/folders/by/7g7br9lj2xnbkz1cp6hj5p2r0000gn/T//ccx09qXr.s 			page 6


 286              		.loc 1 56 0
 287 00e8 1E4A     		ldr	r2, .L42+28
 288 00ea B5F90030 		ldrsh	r3, [r5]
 289              		.loc 1 55 0
 290 00ee 89B2     		uxth	r1, r1
 291 00f0 1429     		cmp	r1, #20
 292 00f2 0ED8     		bhi	.L25
 293              		.loc 1 56 0
 294 00f4 0121     		movs	r1, #1
 295              	.LBE12:
 296              	.LBE17:
 297              		.loc 1 127 0
 298 00f6 0A2B     		cmp	r3, #10
 299              	.LBB18:
 300              	.LBB13:
 301              		.loc 1 56 0
 302 00f8 1170     		strb	r1, [r2]
 303              	.LVL21:
 304              	.LBE13:
 305              	.LBE18:
 306              		.loc 1 127 0
 307 00fa 18DD     		ble	.L26
 308              	.L29:
 309              		.loc 1 129 0
 310 00fc 1A4E     		ldr	r6, .L42+32
 311 00fe 96F90030 		ldrsb	r3, [r6]
 312 0102 6BB1     		cbz	r3, .L41
 313              		.loc 1 131 0
 314 0104 0021     		movs	r1, #0
 315 0106 0120     		movs	r0, #1
 316 0108 FFF7FEFF 		bl	set_led
 317              	.LVL22:
 318              		.loc 1 132 0
 319 010c 0023     		movs	r3, #0
 320 010e 3370     		strb	r3, [r6]
 321 0110 03E0     		b	.L30
 322              	.LVL23:
 323              	.L25:
 324              	.LBB19:
 325              	.LBB14:
 326              		.loc 1 60 0
 327 0112 0021     		movs	r1, #0
 328              	.LBE14:
 329              	.LBE19:
 330              		.loc 1 127 0
 331 0114 0A2B     		cmp	r3, #10
 332              	.LBB20:
 333              	.LBB15:
 334              		.loc 1 60 0
 335 0116 1170     		strb	r1, [r2]
 336              	.LVL24:
 337              	.LBE15:
 338              	.LBE20:
 339              		.loc 1 127 0
 340 0118 F0DC     		bgt	.L29
 341              	.L30:
 342              		.loc 1 139 0
ARM GAS  /var/folders/by/7g7br9lj2xnbkz1cp6hj5p2r0000gn/T//ccx09qXr.s 			page 7


 343 011a 0023     		movs	r3, #0
 344 011c 2B80     		strh	r3, [r5]	@ movhi
 345              		.loc 1 151 0
 346 011e B8E7     		b	.L15
 347              	.L41:
 348              		.loc 1 136 0
 349 0120 0121     		movs	r1, #1
 350 0122 0846     		mov	r0, r1
 351 0124 FFF7FEFF 		bl	set_led
 352              	.LVL25:
 353              		.loc 1 137 0
 354 0128 0123     		movs	r3, #1
 355 012a 3370     		strb	r3, [r6]
 356 012c F5E7     		b	.L30
 357              	.L26:
 358              		.loc 1 143 0
 359 012e 0133     		adds	r3, r3, #1
 360              		.loc 1 144 0
 361 0130 0021     		movs	r1, #0
 362              		.loc 1 143 0
 363 0132 2B80     		strh	r3, [r5]	@ movhi
 364              		.loc 1 144 0
 365 0134 1170     		strb	r1, [r2]
 366 0136 ACE7     		b	.L15
 367              	.LVL26:
 368              	.L16:
 369              		.loc 1 104 0
 370 0138 B3F5006F 		cmp	r3, #2048
 371 013c A9D3     		bcc	.L15
 372 013e AFE7     		b	.L17
 373              	.LVL27:
 374              	.L39:
 375 0140 3380     		strh	r3, [r6]	@ movhi
 376 0142 A6E7     		b	.L15
 377              	.L40:
 378              		.loc 1 151 0
 379 0144 FFF7FEFF 		bl	__stack_chk_fail
 380              	.LVL28:
 381              	.L43:
 382              		.align	2
 383              	.L42:
 384 0148 00000000 		.word	__stack_chk_guard
 385 014c 00000000 		.word	.LANCHOR1
 386 0150 00000000 		.word	micLeft_cmplx_input
 387 0154 00000000 		.word	micLeft_output
 388 0158 68010000 		.word	micLeft_output+360
 389 015c 00401C46 		.word	1176256512
 390 0160 00000000 		.word	.LANCHOR2
 391 0164 00000000 		.word	.LANCHOR0
 392 0168 00000000 		.word	.LANCHOR3
 393              		.cfi_endproc
 394              	.LFE291:
 395              		.size	processAudioData, .-processAudioData
 396              		.section	.text.get_audio_buffer_ptr,"ax",%progbits
 397              		.align	1
 398              		.p2align 4,,15
 399              		.global	get_audio_buffer_ptr
ARM GAS  /var/folders/by/7g7br9lj2xnbkz1cp6hj5p2r0000gn/T//ccx09qXr.s 			page 8


 400              		.syntax unified
 401              		.thumb
 402              		.thumb_func
 403              		.fpu fpv4-sp-d16
 404              		.type	get_audio_buffer_ptr, %function
 405              	get_audio_buffer_ptr:
 406              	.LFB292:
 407              		.loc 1 157 0
 408              		.cfi_startproc
 409              		@ args = 0, pretend = 0, frame = 8
 410              		@ frame_needed = 0, uses_anonymous_args = 0
 411              	.LVL29:
 412 0000 00B5     		push	{lr}
 413              		.cfi_def_cfa_offset 4
 414              		.cfi_offset 14, -4
 415 0002 0A4A     		ldr	r2, .L51
 416 0004 83B0     		sub	sp, sp, #12
 417              		.cfi_def_cfa_offset 16
 418              		.loc 1 157 0
 419 0006 1368     		ldr	r3, [r2]
 420 0008 0193     		str	r3, [sp, #4]
 421              		.loc 1 158 0
 422 000a 58B1     		cbz	r0, .L47
 423              		.loc 1 167 0
 424 000c 084B     		ldr	r3, .L51+4
 425              		.loc 1 162 0
 426 000e 0428     		cmp	r0, #4
 427              		.loc 1 167 0
 428 0010 0CBF     		ite	eq
 429 0012 1846     		moveq	r0, r3
 430              	.LVL30:
 431 0014 0020     		movne	r0, #0
 432              	.L44:
 433              		.loc 1 169 0
 434 0016 0199     		ldr	r1, [sp, #4]
 435 0018 1368     		ldr	r3, [r2]
 436 001a 9942     		cmp	r1, r3
 437 001c 04D1     		bne	.L50
 438 001e 03B0     		add	sp, sp, #12
 439              		.cfi_remember_state
 440              		.cfi_def_cfa_offset 4
 441              		@ sp needed
 442 0020 5DF804FB 		ldr	pc, [sp], #4
 443              	.LVL31:
 444              	.L47:
 445              		.cfi_restore_state
 446              		.loc 1 159 0
 447 0024 0348     		ldr	r0, .L51+8
 448              	.LVL32:
 449 0026 F6E7     		b	.L44
 450              	.L50:
 451              		.loc 1 169 0
 452 0028 FFF7FEFF 		bl	__stack_chk_fail
 453              	.LVL33:
 454              	.L52:
 455              		.align	2
 456              	.L51:
ARM GAS  /var/folders/by/7g7br9lj2xnbkz1cp6hj5p2r0000gn/T//ccx09qXr.s 			page 9


 457 002c 00000000 		.word	__stack_chk_guard
 458 0030 00000000 		.word	micLeft_output
 459 0034 00000000 		.word	micLeft_cmplx_input
 460              		.cfi_endproc
 461              	.LFE292:
 462              		.size	get_audio_buffer_ptr, .-get_audio_buffer_ptr
 463              		.section	.text.get_run,"ax",%progbits
 464              		.align	1
 465              		.p2align 4,,15
 466              		.global	get_run
 467              		.syntax unified
 468              		.thumb
 469              		.thumb_func
 470              		.fpu fpv4-sp-d16
 471              		.type	get_run, %function
 472              	get_run:
 473              	.LFB293:
 474              		.loc 1 171 0
 475              		.cfi_startproc
 476              		@ args = 0, pretend = 0, frame = 8
 477              		@ frame_needed = 0, uses_anonymous_args = 0
 478 0000 00B5     		push	{lr}
 479              		.cfi_def_cfa_offset 4
 480              		.cfi_offset 14, -4
 481 0002 074B     		ldr	r3, .L57
 482              		.loc 1 172 0
 483 0004 0749     		ldr	r1, .L57+4
 484              		.loc 1 171 0
 485 0006 1A68     		ldr	r2, [r3]
 486              		.loc 1 173 0
 487 0008 0878     		ldrb	r0, [r1]	@ zero_extendqisi2
 488              		.loc 1 171 0
 489 000a 83B0     		sub	sp, sp, #12
 490              		.cfi_def_cfa_offset 16
 491              		.loc 1 171 0
 492 000c 0192     		str	r2, [sp, #4]
 493              		.loc 1 173 0
 494 000e 019A     		ldr	r2, [sp, #4]
 495 0010 1B68     		ldr	r3, [r3]
 496 0012 9A42     		cmp	r2, r3
 497 0014 02D1     		bne	.L56
 498 0016 03B0     		add	sp, sp, #12
 499              		.cfi_remember_state
 500              		.cfi_def_cfa_offset 4
 501              		@ sp needed
 502 0018 5DF804FB 		ldr	pc, [sp], #4
 503              	.L56:
 504              		.cfi_restore_state
 505 001c FFF7FEFF 		bl	__stack_chk_fail
 506              	.LVL34:
 507              	.L58:
 508              		.align	2
 509              	.L57:
 510 0020 00000000 		.word	__stack_chk_guard
 511 0024 00000000 		.word	.LANCHOR0
 512              		.cfi_endproc
 513              	.LFE293:
ARM GAS  /var/folders/by/7g7br9lj2xnbkz1cp6hj5p2r0000gn/T//ccx09qXr.s 			page 10


 514              		.size	get_run, .-get_run
 515              		.section	.bss.freq_found,"aw",%nobits
 516              		.set	.LANCHOR0,. + 0
 517              		.type	freq_found, %object
 518              		.size	freq_found, 1
 519              	freq_found:
 520 0000 00       		.space	1
 521              		.section	.bss.led_on,"aw",%nobits
 522              		.set	.LANCHOR3,. + 0
 523              		.type	led_on, %object
 524              		.size	led_on, 1
 525              	led_on:
 526 0000 00       		.space	1
 527              		.section	.bss.micLeft_cmplx_input,"aw",%nobits
 528              		.align	2
 529              		.type	micLeft_cmplx_input, %object
 530              		.size	micLeft_cmplx_input, 8192
 531              	micLeft_cmplx_input:
 532 0000 00000000 		.space	8192
 532      00000000 
 532      00000000 
 532      00000000 
 532      00000000 
 533              		.section	.bss.micLeft_output,"aw",%nobits
 534              		.align	2
 535              		.type	micLeft_output, %object
 536              		.size	micLeft_output, 4096
 537              	micLeft_output:
 538 0000 00000000 		.space	4096
 538      00000000 
 538      00000000 
 538      00000000 
 538      00000000 
 539              		.section	.bss.nb_samples.14225,"aw",%nobits
 540              		.align	1
 541              		.set	.LANCHOR1,. + 0
 542              		.type	nb_samples.14225, %object
 543              		.size	nb_samples.14225, 2
 544              	nb_samples.14225:
 545 0000 0000     		.space	2
 546              		.section	.bss.successive_freq_counter,"aw",%nobits
 547              		.align	1
 548              		.set	.LANCHOR2,. + 0
 549              		.type	successive_freq_counter, %object
 550              		.size	successive_freq_counter, 2
 551              	successive_freq_counter:
 552 0000 0000     		.space	2
 553              		.text
 554              	.Letext0:
 555              		.file 2 "/Applications/Eclipse_e-puck2.app/Contents/Eclipse_e-puck2/Tools/gcc-arm-none-eabi-7-2017
 556              		.file 3 "/Applications/Eclipse_e-puck2.app/Contents/Eclipse_e-puck2/Tools/gcc-arm-none-eabi-7-2017
 557              		.file 4 "/Applications/Eclipse_e-puck2.app/Contents/Eclipse_e-puck2/Tools/gcc-arm-none-eabi-7-2017
 558              		.file 5 "../../lib/e-puck2_main-processor/ChibiOS//os/rt/ports/ARMCMx/compilers/GCC/chtypes.h"
 559              		.file 6 "../../lib/e-puck2_main-processor/ChibiOS//os/rt/include/chsystypes.h"
 560              		.file 7 "../../lib/e-puck2_main-processor/ChibiOS//os/rt/include/chschd.h"
 561              		.file 8 "../../lib/e-puck2_main-processor/ChibiOS//os/ext/CMSIS/include/core_cm4.h"
 562              		.file 9 "../../lib/e-puck2_main-processor/ChibiOS//os/ext/CMSIS/ST/system_stm32f4xx.h"
ARM GAS  /var/folders/by/7g7br9lj2xnbkz1cp6hj5p2r0000gn/T//ccx09qXr.s 			page 11


 563              		.file 10 "../../lib/e-puck2_main-processor/ChibiOS//os/ext/CMSIS/ST/stm32f407xx.h"
 564              		.file 11 "../../lib/e-puck2_main-processor/ChibiOS//os/rt/ports/ARMCMx/chcore.h"
 565              		.file 12 "../../lib/e-puck2_main-processor/ChibiOS//os/rt/ports/ARMCMx/chcore_v7m.h"
 566              		.file 13 "../../lib/e-puck2_main-processor/ChibiOS//os/rt/include/chdebug.h"
 567              		.file 14 "../../lib/e-puck2_main-processor/ChibiOS//os/rt/include/chtm.h"
 568              		.file 15 "../../lib/e-puck2_main-processor/ChibiOS//os/rt/include/chstats.h"
 569              		.file 16 "../../lib/e-puck2_main-processor/ChibiOS//os/rt/include/chsem.h"
 570              		.file 17 "../../lib/e-puck2_main-processor/ChibiOS//os/rt/include/chmtx.h"
 571              		.file 18 "../../lib/e-puck2_main-processor/ChibiOS//os/rt/include/chregistry.h"
 572              		.file 19 "../../lib/e-puck2_main-processor/ChibiOS//os/rt/include/chevents.h"
 573              		.file 20 "../../lib/e-puck2_main-processor/ChibiOS//os/rt/include/chqueues.h"
 574              		.file 21 "../../lib/e-puck2_main-processor/ChibiOS//os/hal/ports/STM32/STM32F4xx/stm32_dma.h"
 575              		.file 22 "../../lib/e-puck2_main-processor/ChibiOS//os/hal/include/hal_ioblock.h"
 576              		.file 23 "../../lib/e-puck2_main-processor/ChibiOS//os/hal/ports/STM32/LLD/GPIOv2/pal_lld.h"
 577              		.file 24 "../../lib/e-puck2_main-processor/ChibiOS//os/hal/include/adc.h"
 578              		.file 25 "../../lib/e-puck2_main-processor/ChibiOS//os/hal/ports/STM32/STM32F4xx/adc_lld.h"
 579              		.file 26 "../../lib/e-puck2_main-processor/ChibiOS//os/hal/include/can.h"
 580              		.file 27 "../../lib/e-puck2_main-processor/ChibiOS//os/hal/ports/STM32/LLD/can_lld.h"
 581              		.file 28 "../../lib/e-puck2_main-processor/ChibiOS//os/hal/include/dac.h"
 582              		.file 29 "../../lib/e-puck2_main-processor/ChibiOS//os/hal/ports/STM32/LLD/DACv1/dac_lld.h"
 583              		.file 30 "../../lib/e-puck2_main-processor/ChibiOS//os/hal/include/ext.h"
 584              		.file 31 "../../lib/e-puck2_main-processor/ChibiOS//os/hal/ports/STM32/LLD/ext_lld.h"
 585              		.file 32 "../../lib/e-puck2_main-processor/ChibiOS//os/hal/include/gpt.h"
 586              		.file 33 "../../lib/e-puck2_main-processor/ChibiOS//os/hal/ports/STM32/LLD/TIMv1/gpt_lld.h"
 587              		.file 34 "../../lib/e-puck2_main-processor/ChibiOS//os/hal/ports/STM32/LLD/TIMv1/stm32_tim.h"
 588              		.file 35 "../../lib/e-puck2_main-processor/ChibiOS//os/hal/include/i2c.h"
 589              		.file 36 "../../lib/e-puck2_main-processor/ChibiOS//os/hal/ports/STM32/LLD/I2Cv1/i2c_lld.h"
 590              		.file 37 "../../lib/e-puck2_main-processor/ChibiOS//os/hal/include/i2s.h"
 591              		.file 38 "../../lib/e-puck2_main-processor/ChibiOS//os/hal/ports/STM32/LLD/SPIv1/i2s_lld.h"
 592              		.file 39 "../../lib/e-puck2_main-processor/ChibiOS//os/hal/include/pwm.h"
 593              		.file 40 "../../lib/e-puck2_main-processor/ChibiOS//os/hal/ports/STM32/LLD/TIMv1/pwm_lld.h"
 594              		.file 41 "../../lib/e-puck2_main-processor/ChibiOS//os/hal/include/serial.h"
 595              		.file 42 "../../lib/e-puck2_main-processor/ChibiOS//os/hal/ports/STM32/LLD/USARTv1/serial_lld.h"
 596              		.file 43 "../../lib/e-puck2_main-processor/ChibiOS//os/hal/include/sdc.h"
 597              		.file 44 "../../lib/e-puck2_main-processor/ChibiOS//os/hal/ports/STM32/LLD/sdc_lld.h"
 598              		.file 45 "../../lib/e-puck2_main-processor/ChibiOS//os/hal/include/spi.h"
 599              		.file 46 "../../lib/e-puck2_main-processor/ChibiOS//os/hal/ports/STM32/LLD/SPIv1/spi_lld.h"
 600              		.file 47 "../../lib/e-puck2_main-processor/ChibiOS//os/hal/include/usb.h"
 601              		.file 48 "../../lib/e-puck2_main-processor/ChibiOS//os/hal/ports/STM32/LLD/OTGv1/usb_lld.h"
 602              		.file 49 "../../lib/e-puck2_main-processor/ChibiOS//os/hal/ports/STM32/LLD/OTGv1/stm32_otg.h"
 603              		.file 50 "../../lib/e-puck2_main-processor/ChibiOS//os/hal/include/serial_usb.h"
 604              		.file 51 "../../lib/e-puck2_main-processor/ChibiOS_ext/os/hal/include/../ports/STM32/STM32F4xx/dcm
 605              		.file 52 "/Applications/Eclipse_e-puck2.app/Contents/Eclipse_e-puck2/Tools/gcc-arm-none-eabi-7-201
 606              		.file 53 "/Applications/Eclipse_e-puck2.app/Contents/Eclipse_e-puck2/Tools/gcc-arm-none-eabi-7-201
 607              		.file 54 "/Applications/Eclipse_e-puck2.app/Contents/Eclipse_e-puck2/Tools/gcc-arm-none-eabi-7-201
 608              		.file 55 "../../lib/e-puck2_main-processor/src/msgbus/messagebus.h"
 609              		.file 56 "/Applications/Eclipse_e-puck2.app/Contents/Eclipse_e-puck2/Tools/gcc-arm-none-eabi-7-201
 610              		.file 57 "/Applications/Eclipse_e-puck2.app/Contents/Eclipse_e-puck2/Tools/gcc-arm-none-eabi-7-201
 611              		.file 58 "../../lib/e-puck2_main-processor/src/parameter/parameter.h"
 612              		.file 59 "./main.h"
 613              		.file 60 "../../lib/e-puck2_main-processor/src/usbcfg.h"
 614              		.file 61 "./noise_detection.h"
 615              		.file 62 "/Applications/Eclipse_e-puck2.app/Contents/Eclipse_e-puck2/Tools/gcc-arm-none-eabi-7-201
 616              		.file 63 "../../lib/e-puck2_main-processor/src/leds.h"
 617              		.file 64 "./fft.h"
 618              		.file 65 "../../lib/e-puck2_main-processor/ChibiOS//os/ext/CMSIS/include/arm_math.h"