ARM GAS  /var/folders/by/7g7br9lj2xnbkz1cp6hj5p2r0000gn/T//cc8jtnmj.s 			page 1


   1              		.cpu cortex-m4
   2              		.eabi_attribute 27, 1
   3              		.eabi_attribute 28, 1
   4              		.eabi_attribute 20, 1
   5              		.eabi_attribute 21, 1
   6              		.eabi_attribute 23, 3
   7              		.eabi_attribute 24, 1
   8              		.eabi_attribute 25, 1
   9              		.eabi_attribute 26, 1
  10              		.eabi_attribute 30, 2
  11              		.eabi_attribute 34, 1
  12              		.eabi_attribute 18, 4
  13              		.file	"pi_regulator.c"
  14              		.text
  15              	.Ltext0:
  16              		.cfi_sections	.debug_frame
  17              		.section	.text.pi_regulator,"ax",%progbits
  18              		.align	1
  19              		.p2align 4,,15
  20              		.global	pi_regulator
  21              		.syntax unified
  22              		.thumb
  23              		.thumb_func
  24              		.fpu fpv4-sp-d16
  25              		.type	pi_regulator, %function
  26              	pi_regulator:
  27              	.LFB260:
  28              		.file 1 "pi_regulator.c"
  29              		.loc 1 33 0
  30              		.cfi_startproc
  31              		@ args = 0, pretend = 0, frame = 8
  32              		@ frame_needed = 0, uses_anonymous_args = 0
  33              	.LVL0:
  34 0000 00B5     		push	{lr}
  35              		.cfi_def_cfa_offset 4
  36              		.cfi_offset 14, -4
  37              		.loc 1 40 0
  38 0002 1438     		subs	r0, r0, #20
  39              	.LVL1:
  40 0004 07EE900A 		vmov	s15, r0	@ int
  41 0008 B8EEE77A 		vcvt.f32.s32	s14, s15
  42              		.loc 1 33 0
  43 000c 224B     		ldr	r3, .L15
  44              		.loc 1 45 0
  45 000e F3EE047A 		vmov.f32	s15, #2.0e+1
  46              		.loc 1 33 0
  47 0012 83B0     		sub	sp, sp, #12
  48              		.cfi_def_cfa_offset 16
  49              		.loc 1 45 0
  50 0014 B4EEE77A 		vcmpe.f32	s14, s15
  51              		.loc 1 33 0
  52 0018 1A68     		ldr	r2, [r3]
  53 001a 0192     		str	r2, [sp, #4]
  54              	.LVL2:
  55              		.loc 1 45 0
  56 001c F1EE10FA 		vmrs	APSR_nzcv, FPSCR
  57 0020 2FD4     		bmi	.L8
ARM GAS  /var/folders/by/7g7br9lj2xnbkz1cp6hj5p2r0000gn/T//cc8jtnmj.s 			page 2


  58              		.loc 1 49 0
  59 0022 1E4A     		ldr	r2, .L15+4
  60              		.loc 1 53 0
  61 0024 DFED1E6A 		vldr.32	s13, .L15+8
  62              		.loc 1 49 0
  63 0028 D2ED007A 		vldr.32	s15, [r2]
  64 002c 77EE277A 		vadd.f32	s15, s14, s15
  65              		.loc 1 50 0
  66 0030 B6EE006A 		vmov.f32	s12, #5.0e-1
  67 0034 67EE867A 		vmul.f32	s15, s15, s12
  68              		.loc 1 53 0
  69 0038 F4EEE67A 		vcmpe.f32	s15, s13
  70 003c F1EE10FA 		vmrs	APSR_nzcv, FPSCR
  71 0040 13DD     		ble	.L10
  72 0042 DFED187A 		vldr.32	s15, .L15+12
  73              		.loc 1 54 0
  74 0046 C2ED006A 		vstr.32	s13, [r2]
  75              	.L5:
  76              	.LVL3:
  77              		.loc 1 59 0
  78 004a F0EE086A 		vmov.f32	s13, #3.0e+0
  79 004e E7EE267A 		vfma.f32	s15, s14, s13
  80              	.LVL4:
  81              		.loc 1 62 0
  82 0052 FDEEE77A 		vcvt.s32.f32	s15, s15
  83              	.LVL5:
  84 0056 17EE902A 		vmov	r2, s15	@ int
  85 005a 10B2     		sxth	r0, r2
  86              	.L2:
  87              		.loc 1 64 0
  88 005c 019A     		ldr	r2, [sp, #4]
  89 005e 1B68     		ldr	r3, [r3]
  90 0060 9A42     		cmp	r2, r3
  91 0062 17D1     		bne	.L13
  92 0064 03B0     		add	sp, sp, #12
  93              		.cfi_remember_state
  94              		.cfi_def_cfa_offset 4
  95              		@ sp needed
  96 0066 5DF804FB 		ldr	pc, [sp], #4
  97              	.LVL6:
  98              	.L10:
  99              		.cfi_restore_state
 100              		.loc 1 55 0
 101 006a DFED0F6A 		vldr.32	s13, .L15+16
 102 006e F4EEE67A 		vcmpe.f32	s15, s13
 103 0072 F1EE10FA 		vmrs	APSR_nzcv, FPSCR
 104 0076 06D5     		bpl	.L14
 105              		.loc 1 56 0
 106 0078 DFED0C7A 		vldr.32	s15, .L15+20
 107 007c C2ED006A 		vstr.32	s13, [r2]
 108 0080 E3E7     		b	.L5
 109              	.L8:
 110              		.loc 1 46 0
 111 0082 0020     		movs	r0, #0
 112 0084 EAE7     		b	.L2
 113              	.L14:
 114 0086 DFED0A6A 		vldr.32	s13, .L15+24
ARM GAS  /var/folders/by/7g7br9lj2xnbkz1cp6hj5p2r0000gn/T//cc8jtnmj.s 			page 3


 115              		.loc 1 50 0
 116 008a C2ED007A 		vstr.32	s15, [r2]
 117 008e 67EEA67A 		vmul.f32	s15, s15, s13
 118 0092 DAE7     		b	.L5
 119              	.LVL7:
 120              	.L13:
 121              		.loc 1 64 0
 122 0094 FFF7FEFF 		bl	__stack_chk_fail
 123              	.LVL8:
 124              	.L16:
 125              		.align	2
 126              	.L15:
 127 0098 00000000 		.word	__stack_chk_guard
 128 009c 00000000 		.word	.LANCHOR0
 129 00a0 00E02B46 		.word	1177280512
 130 00a4 00808944 		.word	1149861888
 131 00a8 00E02BC6 		.word	3324764160
 132 00ac 008089C4 		.word	3297345536
 133 00b0 CDCCCC3D 		.word	1036831949
 134              		.cfi_endproc
 135              	.LFE260:
 136              		.size	pi_regulator, .-pi_regulator
 137              		.section	.text.PiRegulator,"ax",%progbits
 138              		.align	1
 139              		.p2align 4,,15
 140              		.syntax unified
 141              		.thumb
 142              		.thumb_func
 143              		.fpu fpv4-sp-d16
 144              		.type	PiRegulator, %function
 145              	PiRegulator:
 146              	.LFB262:
 147              		.loc 1 110 0
 148              		.cfi_startproc
 149              		@ args = 0, pretend = 0, frame = 8
 150              		@ frame_needed = 0, uses_anonymous_args = 0
 151              	.LVL9:
 152 0000 2DE9F043 		push	{r4, r5, r6, r7, r8, r9, lr}
 153              		.cfi_def_cfa_offset 28
 154              		.cfi_offset 4, -28
 155              		.cfi_offset 5, -24
 156              		.cfi_offset 6, -20
 157              		.cfi_offset 7, -16
 158              		.cfi_offset 8, -12
 159              		.cfi_offset 9, -8
 160              		.cfi_offset 14, -4
 161 0004 2B4B     		ldr	r3, .L28
 162              	.LBB48:
 163              	.LBB49:
 164              		.file 2 "../../lib/e-puck2_main-processor/ChibiOS//os/rt/include/chregistry.h"
 165              		.loc 2 135 0
 166 0006 2C4C     		ldr	r4, .L28+4
 167              	.LBE49:
 168              	.LBE48:
 169              		.loc 1 110 0
 170 0008 1B68     		ldr	r3, [r3]
 171              	.LBB52:
ARM GAS  /var/folders/by/7g7br9lj2xnbkz1cp6hj5p2r0000gn/T//cc8jtnmj.s 			page 4


 172              	.LBB50:
 173              		.loc 2 135 0
 174 000a A269     		ldr	r2, [r4, #24]
 175 000c 2B49     		ldr	r1, .L28+8
 176              	.LBE50:
 177              	.LBE52:
 178              	.LBB53:
 179              	.LBB54:
 180              	.LBB55:
 181              	.LBB56:
 182              		.file 3 "../../lib/e-puck2_main-processor/ChibiOS//os/rt/include/chsys.h"
 183              		.loc 3 367 0
 184 000e DFF8B080 		ldr	r8, .L28+12
 185              	.LBE56:
 186              	.LBE55:
 187              	.LBE54:
 188              	.LBE53:
 189              	.LBB82:
 190              	.LBB51:
 191              		.loc 2 135 0
 192 0012 9161     		str	r1, [r2, #24]
 193              	.LBE51:
 194              	.LBE82:
 195              		.loc 1 110 0
 196 0014 83B0     		sub	sp, sp, #12
 197              		.cfi_def_cfa_offset 40
 198              	.LBB83:
 199              	.LBB79:
 200              	.LBB65:
 201              	.LBB66:
 202              	.LBB67:
 203              	.LBB68:
 204              	.LBB69:
 205              		.file 4 "../../lib/e-puck2_main-processor/ChibiOS//os/ext/CMSIS/include/core_cmFunc.h"
 206              		.loc 4 546 0
 207 0016 2026     		movs	r6, #32
 208              	.LBE69:
 209              	.LBE68:
 210              	.LBE67:
 211              	.LBE66:
 212              	.LBE65:
 213              	.LBE79:
 214              	.LBE83:
 215              		.loc 1 110 0
 216 0018 0193     		str	r3, [sp, #4]
 217              	.LVL10:
 218              		.loc 1 117 0
 219 001a 0023     		movs	r3, #0
 220 001c ADF80230 		strh	r3, [sp, #2]	@ movhi
 221              	.LVL11:
 222              	.LBB84:
 223              	.LBB80:
 224              	.LBB74:
 225              	.LBB63:
 226              	.LBB57:
 227              	.LBB58:
 228              	.LBB59:
ARM GAS  /var/folders/by/7g7br9lj2xnbkz1cp6hj5p2r0000gn/T//cc8jtnmj.s 			page 5


 229              		.loc 4 546 0
 230 0020 1F46     		mov	r7, r3
 231              	.LBE59:
 232              	.LBE58:
 233              	.LBE57:
 234              	.LBE63:
 235              	.LBE74:
 236              	.LBE80:
 237              	.LBE84:
 238              		.loc 1 120 0
 239 0022 8DF80130 		strb	r3, [sp, #1]
 240              	.LVL12:
 241              	.L18:
 242              		.loc 1 124 0
 243 0026 FFF7FEFF 		bl	get_avoid
 244              	.LVL13:
 245 002a 8DF80100 		strb	r0, [sp, #1]
 246              		.loc 1 125 0
 247 002e FFF7FEFF 		bl	get_left
 248              	.LVL14:
 249              		.loc 1 127 0
 250 0032 9DF80130 		ldrb	r3, [sp, #1]	@ zero_extendqisi2
 251 0036 002B     		cmp	r3, #0
 252 0038 F5D1     		bne	.L18
 253              		.loc 1 127 0 is_stmt 0 discriminator 1
 254 003a 0028     		cmp	r0, #0
 255 003c F3D0     		beq	.L18
 256              		.loc 1 128 0 is_stmt 1
 257 003e FFF7FEFF 		bl	get_stop_fsm
 258              	.LVL15:
 259 0042 8146     		mov	r9, r0
 260              	.LVL16:
 261              	.LBB85:
 262              	.LBB81:
 263              	.LBB75:
 264              	.LBB73:
 265              	.LBB72:
 266              	.LBB71:
 267              	.LBB70:
 268              		.loc 4 546 0
 269              		.syntax unified
 270              	@ 546 "../../lib/e-puck2_main-processor/ChibiOS//os/ext/CMSIS/include/core_cmFunc.h" 1
 271 0044 86F31188 		MSR basepri, r6
 272              	@ 0 "" 2
 273              	.LVL17:
 274              		.thumb
 275              		.syntax unified
 276              	.LBE70:
 277              	.LBE71:
 278              	.LBE72:
 279              		.loc 3 349 0
 280 0048 FFF7FEFF 		bl	_stats_start_measure_crit_thd
 281              	.LVL18:
 282              		.loc 3 350 0
 283 004c FFF7FEFF 		bl	_dbg_check_lock
 284              	.LVL19:
 285              	.LBE73:
ARM GAS  /var/folders/by/7g7br9lj2xnbkz1cp6hj5p2r0000gn/T//cc8jtnmj.s 			page 6


 286              	.LBE75:
 287              	.LBB76:
 288              	.LBB77:
 289              		.file 5 "../../lib/e-puck2_main-processor/ChibiOS//os/rt/include/chvt.h"
 290              		.loc 5 231 0
 291 0050 A56A     		ldr	r5, [r4, #40]
 292              	.LBE77:
 293              	.LBE76:
 294              	.LBB78:
 295              	.LBB64:
 296              		.loc 3 360 0
 297 0052 FFF7FEFF 		bl	_dbg_check_unlock
 298              	.LVL20:
 299              		.loc 3 361 0
 300 0056 FFF7FEFF 		bl	_stats_stop_measure_crit_thd
 301              	.LVL21:
 302              		.loc 3 367 0
 303 005a 2368     		ldr	r3, [r4]
 304 005c A342     		cmp	r3, r4
 305 005e 07D0     		beq	.L20
 306 0060 A269     		ldr	r2, [r4, #24]
 307 0062 9B68     		ldr	r3, [r3, #8]
 308 0064 9268     		ldr	r2, [r2, #8]
 309 0066 9A42     		cmp	r2, r3
 310 0068 02D2     		bcs	.L20
 311 006a 4046     		mov	r0, r8
 312 006c FFF7FEFF 		bl	chSysHalt
 313              	.LVL22:
 314              	.L20:
 315              	.LBB62:
 316              	.LBB61:
 317              	.LBB60:
 318              		.loc 4 546 0
 319              		.syntax unified
 320              	@ 546 "../../lib/e-puck2_main-processor/ChibiOS//os/ext/CMSIS/include/core_cmFunc.h" 1
 321 0070 87F31188 		MSR basepri, r7
 322              	@ 0 "" 2
 323              	.LVL23:
 324              		.thumb
 325              		.syntax unified
 326              	.LBE60:
 327              	.LBE61:
 328              	.LBE62:
 329              	.LBE64:
 330              	.LBE78:
 331              	.LBE81:
 332              	.LBE85:
 333              		.loc 1 145 0
 334 0074 0020     		movs	r0, #0
 335              		.loc 1 135 0
 336 0076 B9F1000F 		cmp	r9, #0
 337 007a 15D1     		bne	.L21
 338              		.loc 1 137 0
 339 007c FFF7FEFF 		bl	VL53L0X_get_dist_mm
 340              	.LVL24:
 341              		.loc 1 138 0
 342 0080 FFF7FEFF 		bl	pi_regulator
ARM GAS  /var/folders/by/7g7br9lj2xnbkz1cp6hj5p2r0000gn/T//cc8jtnmj.s 			page 7


 343              	.LVL25:
 344 0084 ADF80200 		strh	r0, [sp, #2]	@ movhi
 345              		.loc 1 141 0
 346 0088 BDF80200 		ldrh	r0, [sp, #2]
 347 008c 00B2     		sxth	r0, r0
 348 008e FFF7FEFF 		bl	right_motor_set_speed
 349              	.LVL26:
 350              		.loc 1 142 0
 351 0092 BDF80200 		ldrh	r0, [sp, #2]
 352 0096 00B2     		sxth	r0, r0
 353 0098 FFF7FEFF 		bl	left_motor_set_speed
 354              	.LVL27:
 355              	.L22:
 356              		.loc 1 150 0
 357 009c 05F10A01 		add	r1, r5, #10
 358 00a0 2846     		mov	r0, r5
 359 00a2 FFF7FEFF 		bl	chThdSleepUntilWindowed
 360              	.LVL28:
 361 00a6 BEE7     		b	.L18
 362              	.L21:
 363              		.loc 1 145 0
 364 00a8 FFF7FEFF 		bl	right_motor_set_speed
 365              	.LVL29:
 366              		.loc 1 146 0
 367 00ac 0020     		movs	r0, #0
 368 00ae FFF7FEFF 		bl	left_motor_set_speed
 369              	.LVL30:
 370 00b2 F3E7     		b	.L22
 371              	.L29:
 372              		.align	2
 373              	.L28:
 374 00b4 00000000 		.word	__stack_chk_guard
 375 00b8 00000000 		.word	ch
 376 00bc 00000000 		.word	.LANCHOR1
 377 00c0 00000000 		.word	.LANCHOR2
 378              		.cfi_endproc
 379              	.LFE262:
 380              		.size	PiRegulator, .-PiRegulator
 381              		.section	.text.pi_rotator,"ax",%progbits
 382              		.align	1
 383              		.p2align 4,,15
 384              		.global	pi_rotator
 385              		.syntax unified
 386              		.thumb
 387              		.thumb_func
 388              		.fpu fpv4-sp-d16
 389              		.type	pi_rotator, %function
 390              	pi_rotator:
 391              	.LFB261:
 392              		.loc 1 67 0
 393              		.cfi_startproc
 394              		@ args = 0, pretend = 0, frame = 8
 395              		@ frame_needed = 0, uses_anonymous_args = 0
 396              	.LVL31:
 397              		.loc 1 74 0
 398 0000 091A     		subs	r1, r1, r0
 399              	.LVL32:
ARM GAS  /var/folders/by/7g7br9lj2xnbkz1cp6hj5p2r0000gn/T//cc8jtnmj.s 			page 8


 400 0002 07EE901A 		vmov	s15, r1	@ int
 401 0006 B8EEE77A 		vcvt.f32.s32	s14, s15
 402              		.loc 1 67 0
 403 000a 00B5     		push	{lr}
 404              		.cfi_def_cfa_offset 4
 405              		.cfi_offset 14, -4
 406              		.loc 1 81 0
 407 000c FDEEC77A 		vcvt.s32.f32	s15, s14
 408              		.loc 1 67 0
 409 0010 254A     		ldr	r2, .L46
 410              		.loc 1 81 0
 411 0012 17EE903A 		vmov	r3, s15	@ int
 412              		.loc 1 67 0
 413 0016 83B0     		sub	sp, sp, #12
 414              		.cfi_def_cfa_offset 16
 415              		.loc 1 81 0
 416 0018 2733     		adds	r3, r3, #39
 417              		.loc 1 67 0
 418 001a 1168     		ldr	r1, [r2]
 419 001c 0191     		str	r1, [sp, #4]
 420              	.LVL33:
 421              		.loc 1 81 0
 422 001e 4E2B     		cmp	r3, #78
 423 0020 0ED8     		bhi	.L31
 424              		.loc 1 86 0
 425 0022 B5EEC07A 		vcmpe.f32	s14, #0
 426 0026 F1EE10FA 		vmrs	APSR_nzcv, FPSCR
 427 002a CCBF     		ite	gt
 428 002c C820     		movgt	r0, #200
 429              	.LVL34:
 430 002e 6FF0C700 		mvnle	r0, #199
 431              	.LVL35:
 432              	.L32:
 433              		.loc 1 107 0
 434 0032 0199     		ldr	r1, [sp, #4]
 435 0034 1368     		ldr	r3, [r2]
 436 0036 9942     		cmp	r1, r3
 437 0038 33D1     		bne	.L44
 438 003a 03B0     		add	sp, sp, #12
 439              		.cfi_remember_state
 440              		.cfi_def_cfa_offset 4
 441              		@ sp needed
 442 003c 5DF804FB 		ldr	pc, [sp], #4
 443              	.LVL36:
 444              	.L31:
 445              		.cfi_restore_state
 446              		.loc 1 90 0
 447 0040 1A4B     		ldr	r3, .L46+4
 448              		.loc 1 94 0
 449 0042 DFED1B6A 		vldr.32	s13, .L46+8
 450              		.loc 1 90 0
 451 0046 D3ED007A 		vldr.32	s15, [r3]
 452 004a 77EE277A 		vadd.f32	s15, s14, s15
 453              		.loc 1 91 0
 454 004e B6EE006A 		vmov.f32	s12, #5.0e-1
 455 0052 67EE867A 		vmul.f32	s15, s15, s12
 456              		.loc 1 94 0
ARM GAS  /var/folders/by/7g7br9lj2xnbkz1cp6hj5p2r0000gn/T//cc8jtnmj.s 			page 9


 457 0056 F4EEE67A 		vcmpe.f32	s15, s13
 458 005a F1EE10FA 		vmrs	APSR_nzcv, FPSCR
 459 005e 0DDD     		ble	.L42
 460 0060 DFED147A 		vldr.32	s15, .L46+12
 461              		.loc 1 95 0
 462 0064 C3ED006A 		vstr.32	s13, [r3]
 463              	.L36:
 464              	.LVL37:
 465              		.loc 1 100 0
 466 0068 F0EE086A 		vmov.f32	s13, #3.0e+0
 467 006c E7EE267A 		vfma.f32	s15, s14, s13
 468              	.LVL38:
 469              		.loc 1 104 0
 470 0070 FDEEE77A 		vcvt.s32.f32	s15, s15
 471              	.LVL39:
 472 0074 17EE903A 		vmov	r3, s15	@ int
 473 0078 18B2     		sxth	r0, r3
 474              	.LVL40:
 475 007a DAE7     		b	.L32
 476              	.LVL41:
 477              	.L42:
 478              		.loc 1 96 0
 479 007c DFED0E6A 		vldr.32	s13, .L46+16
 480 0080 F4EEE67A 		vcmpe.f32	s15, s13
 481 0084 F1EE10FA 		vmrs	APSR_nzcv, FPSCR
 482 0088 04D5     		bpl	.L45
 483              		.loc 1 97 0
 484 008a DFED0C7A 		vldr.32	s15, .L46+20
 485 008e C3ED006A 		vstr.32	s13, [r3]
 486 0092 E9E7     		b	.L36
 487              	.L45:
 488 0094 DFED0A6A 		vldr.32	s13, .L46+24
 489              		.loc 1 91 0
 490 0098 C3ED007A 		vstr.32	s15, [r3]
 491 009c 67EEA67A 		vmul.f32	s15, s15, s13
 492 00a0 E2E7     		b	.L36
 493              	.LVL42:
 494              	.L44:
 495              		.loc 1 107 0
 496 00a2 FFF7FEFF 		bl	__stack_chk_fail
 497              	.LVL43:
 498              	.L47:
 499 00a6 00BF     		.align	2
 500              	.L46:
 501 00a8 00000000 		.word	__stack_chk_guard
 502 00ac 00000000 		.word	.LANCHOR3
 503 00b0 00E02B46 		.word	1177280512
 504 00b4 00808944 		.word	1149861888
 505 00b8 00E02BC6 		.word	3324764160
 506 00bc 008089C4 		.word	3297345536
 507 00c0 CDCCCC3D 		.word	1036831949
 508              		.cfi_endproc
 509              	.LFE261:
 510              		.size	pi_rotator, .-pi_rotator
 511              		.section	.text.turn,"ax",%progbits
 512              		.align	1
 513              		.p2align 4,,15
ARM GAS  /var/folders/by/7g7br9lj2xnbkz1cp6hj5p2r0000gn/T//cc8jtnmj.s 			page 10


 514              		.global	turn
 515              		.syntax unified
 516              		.thumb
 517              		.thumb_func
 518              		.fpu fpv4-sp-d16
 519              		.type	turn, %function
 520              	turn:
 521              	.LFB263:
 522              		.loc 1 155 0
 523              		.cfi_startproc
 524              		@ args = 0, pretend = 0, frame = 16
 525              		@ frame_needed = 0, uses_anonymous_args = 0
 526              	.LVL44:
 527              		.loc 1 160 0
 528 0000 DFED377A 		vldr.32	s15, .L57
 529 0004 DFED376A 		vldr.32	s13, .L57+4
 530 0008 20EE270A 		vmul.f32	s0, s0, s15
 531              	.LVL45:
 532 000c B2EE0A7A 		vmov.f32	s14, #1.3e+1
 533 0010 20EE260A 		vmul.f32	s0, s0, s13
 534              		.loc 1 155 0
 535 0014 70B5     		push	{r4, r5, r6, lr}
 536              		.cfi_def_cfa_offset 16
 537              		.cfi_offset 4, -16
 538              		.cfi_offset 5, -12
 539              		.cfi_offset 6, -8
 540              		.cfi_offset 14, -4
 541              		.loc 1 160 0
 542 0016 C0EE077A 		vdiv.f32	s15, s0, s14
 543              		.loc 1 155 0
 544 001a 334E     		ldr	r6, .L57+8
 545 001c 84B0     		sub	sp, sp, #16
 546              		.cfi_def_cfa_offset 32
 547              		.loc 1 158 0
 548 001e 0024     		movs	r4, #0
 549              		.loc 1 155 0
 550 0020 3268     		ldr	r2, [r6]
 551 0022 0392     		str	r2, [sp, #12]
 552              	.LVL46:
 553              		.loc 1 157 0
 554 0024 0023     		movs	r3, #0
 555              		.loc 1 163 0
 556 0026 2046     		mov	r0, r4
 557              		.loc 1 157 0
 558 0028 0093     		str	r3, [sp]	@ float
 559              		.loc 1 158 0
 560 002a 0194     		str	r4, [sp, #4]
 561 002c 0294     		str	r4, [sp, #8]
 562              		.loc 1 160 0
 563 002e FDEEE77A 		vcvt.s32.f32	s15, s15
 564 0032 17EE905A 		vmov	r5, s15	@ int
 565              	.LVL47:
 566              		.loc 1 163 0
 567 0036 FFF7FEFF 		bl	left_motor_set_pos
 568              	.LVL48:
 569              		.loc 1 164 0
 570 003a 2046     		mov	r0, r4
ARM GAS  /var/folders/by/7g7br9lj2xnbkz1cp6hj5p2r0000gn/T//cc8jtnmj.s 			page 11


 571 003c FFF7FEFF 		bl	right_motor_set_pos
 572              	.LVL49:
 573              		.loc 1 166 0
 574 0040 019B     		ldr	r3, [sp, #4]
 575 0042 85EAE574 		eor	r4, r5, r5, asr #31
 576 0046 002B     		cmp	r3, #0
 577 0048 A4EBE574 		sub	r4, r4, r5, asr #31
 578 004c B8BF     		it	lt
 579 004e 5B42     		rsblt	r3, r3, #0
 580 0050 A342     		cmp	r3, r4
 581 0052 35DA     		bge	.L49
 582 0054 029B     		ldr	r3, [sp, #8]
 583 0056 002B     		cmp	r3, #0
 584 0058 B8BF     		it	lt
 585 005a 5B42     		rsblt	r3, r3, #0
 586 005c 9C42     		cmp	r4, r3
 587 005e 06DC     		bgt	.L50
 588 0060 2EE0     		b	.L49
 589              	.L55:
 590              		.loc 1 166 0 is_stmt 0 discriminator 1
 591 0062 029B     		ldr	r3, [sp, #8]
 592 0064 002B     		cmp	r3, #0
 593 0066 B8BF     		it	lt
 594 0068 5B42     		rsblt	r3, r3, #0
 595 006a A342     		cmp	r3, r4
 596 006c 28DA     		bge	.L49
 597              	.L50:
 598              		.loc 1 168 0 is_stmt 1
 599 006e FFF7FEFF 		bl	right_motor_get_pos
 600              	.LVL50:
 601 0072 0190     		str	r0, [sp, #4]
 602              		.loc 1 169 0
 603 0074 FFF7FEFF 		bl	left_motor_get_pos
 604              	.LVL51:
 605 0078 0290     		str	r0, [sp, #8]
 606              		.loc 1 171 0
 607 007a 0198     		ldr	r0, [sp, #4]
 608 007c 2946     		mov	r1, r5
 609 007e 80B2     		uxth	r0, r0
 610 0080 FFF7FEFF 		bl	pi_rotator
 611              	.LVL52:
 612 0084 07EE900A 		vmov	s15, r0	@ int
 613 0088 F8EEE77A 		vcvt.f32.s32	s15, s15
 614 008c CDED007A 		vstr.32	s15, [sp]
 615              		.loc 1 173 0
 616 0090 DDED007A 		vldr.32	s15, [sp]
 617 0094 FDEEE77A 		vcvt.s32.f32	s15, s15
 618 0098 17EE900A 		vmov	r0, s15	@ int
 619 009c FFF7FEFF 		bl	right_motor_set_speed
 620              	.LVL53:
 621              		.loc 1 174 0
 622 00a0 DDED007A 		vldr.32	s15, [sp]
 623 00a4 F1EE677A 		vneg.f32	s15, s15
 624 00a8 FDEEE77A 		vcvt.s32.f32	s15, s15
 625 00ac 17EE900A 		vmov	r0, s15	@ int
 626 00b0 FFF7FEFF 		bl	left_motor_set_speed
 627              	.LVL54:
ARM GAS  /var/folders/by/7g7br9lj2xnbkz1cp6hj5p2r0000gn/T//cc8jtnmj.s 			page 12


 628              		.loc 1 166 0
 629 00b4 019B     		ldr	r3, [sp, #4]
 630 00b6 002B     		cmp	r3, #0
 631 00b8 B8BF     		it	lt
 632 00ba 5B42     		rsblt	r3, r3, #0
 633 00bc A342     		cmp	r3, r4
 634 00be D0DB     		blt	.L55
 635              	.L49:
 636              		.loc 1 177 0
 637 00c0 0020     		movs	r0, #0
 638 00c2 FFF7FEFF 		bl	right_motor_set_speed
 639              	.LVL55:
 640              		.loc 1 178 0
 641 00c6 039A     		ldr	r2, [sp, #12]
 642 00c8 3368     		ldr	r3, [r6]
 643 00ca 9A42     		cmp	r2, r3
 644 00cc 05D1     		bne	.L56
 645 00ce 0020     		movs	r0, #0
 646              		.loc 1 179 0
 647 00d0 04B0     		add	sp, sp, #16
 648              		.cfi_remember_state
 649              		.cfi_def_cfa_offset 16
 650              		@ sp needed
 651 00d2 BDE87040 		pop	{r4, r5, r6, lr}
 652              		.cfi_restore 14
 653              		.cfi_restore 6
 654              		.cfi_restore 5
 655              		.cfi_restore 4
 656              		.cfi_def_cfa_offset 0
 657              	.LVL56:
 658              		.loc 1 178 0
 659 00d6 FFF7FEBF 		b	left_motor_set_speed
 660              	.LVL57:
 661              	.L56:
 662              		.cfi_restore_state
 663 00da FFF7FEFF 		bl	__stack_chk_fail
 664              	.LVL58:
 665              	.L58:
 666 00de 00BF     		.align	2
 667              	.L57:
 668 00e0 9A992940 		.word	1076468122
 669 00e4 00007A44 		.word	1148846080
 670 00e8 00000000 		.word	__stack_chk_guard
 671              		.cfi_endproc
 672              	.LFE263:
 673              		.size	turn, .-turn
 674              		.section	.text.pi_regulator_start,"ax",%progbits
 675              		.align	1
 676              		.p2align 4,,15
 677              		.global	pi_regulator_start
 678              		.syntax unified
 679              		.thumb
 680              		.thumb_func
 681              		.fpu fpv4-sp-d16
 682              		.type	pi_regulator_start, %function
 683              	pi_regulator_start:
 684              	.LFB264:
ARM GAS  /var/folders/by/7g7br9lj2xnbkz1cp6hj5p2r0000gn/T//cc8jtnmj.s 			page 13


 685              		.loc 1 181 0
 686              		.cfi_startproc
 687              		@ args = 0, pretend = 0, frame = 8
 688              		@ frame_needed = 0, uses_anonymous_args = 0
 689 0000 10B5     		push	{r4, lr}
 690              		.cfi_def_cfa_offset 8
 691              		.cfi_offset 4, -8
 692              		.cfi_offset 14, -4
 693 0002 0A4C     		ldr	r4, .L63
 694              		.loc 1 182 0
 695 0004 0A4B     		ldr	r3, .L63+4
 696              		.loc 1 181 0
 697 0006 2268     		ldr	r2, [r4]
 698              		.loc 1 182 0
 699 0008 0A48     		ldr	r0, .L63+8
 700              		.loc 1 181 0
 701 000a 84B0     		sub	sp, sp, #16
 702              		.cfi_def_cfa_offset 24
 703              		.loc 1 182 0
 704 000c 4FF4AF61 		mov	r1, #1400
 705              		.loc 1 181 0
 706 0010 0392     		str	r2, [sp, #12]
 707              		.loc 1 182 0
 708 0012 0022     		movs	r2, #0
 709 0014 0092     		str	r2, [sp]
 710 0016 4022     		movs	r2, #64
 711 0018 FFF7FEFF 		bl	chThdCreateStatic
 712              	.LVL59:
 713              		.loc 1 183 0
 714 001c 039A     		ldr	r2, [sp, #12]
 715 001e 2368     		ldr	r3, [r4]
 716 0020 9A42     		cmp	r2, r3
 717 0022 01D1     		bne	.L62
 718 0024 04B0     		add	sp, sp, #16
 719              		.cfi_remember_state
 720              		.cfi_def_cfa_offset 8
 721              		@ sp needed
 722 0026 10BD     		pop	{r4, pc}
 723              	.L62:
 724              		.cfi_restore_state
 725 0028 FFF7FEFF 		bl	__stack_chk_fail
 726              	.LVL60:
 727              	.L64:
 728              		.align	2
 729              	.L63:
 730 002c 00000000 		.word	__stack_chk_guard
 731 0030 00000000 		.word	PiRegulator
 732 0034 00000000 		.word	.LANCHOR4
 733              		.cfi_endproc
 734              	.LFE264:
 735              		.size	pi_regulator_start, .-pi_regulator_start
 736              		.section	.bss.sum_error,"aw",%nobits
 737              		.align	2
 738              		.set	.LANCHOR0,. + 0
 739              		.type	sum_error, %object
 740              		.size	sum_error, 4
 741              	sum_error:
ARM GAS  /var/folders/by/7g7br9lj2xnbkz1cp6hj5p2r0000gn/T//cc8jtnmj.s 			page 14


 742 0000 00000000 		.space	4
 743              		.section	.bss.sum_error_rot,"aw",%nobits
 744              		.align	2
 745              		.set	.LANCHOR3,. + 0
 746              		.type	sum_error_rot, %object
 747              		.size	sum_error_rot, 4
 748              	sum_error_rot:
 749 0000 00000000 		.space	4
 750              		.section	.bss.waPiRegulator,"aw",%nobits
 751              		.align	3
 752              		.set	.LANCHOR4,. + 0
 753              		.type	waPiRegulator, %object
 754              		.size	waPiRegulator, 1400
 755              	waPiRegulator:
 756 0000 00000000 		.space	1400
 756      00000000 
 756      00000000 
 756      00000000 
 756      00000000 
 757              		.section	.rodata.__FUNCTION__.13465,"a",%progbits
 758              		.align	2
 759              		.set	.LANCHOR1,. + 0
 760              		.type	__FUNCTION__.13465, %object
 761              		.size	__FUNCTION__.13465, 12
 762              	__FUNCTION__.13465:
 763 0000 50695265 		.ascii	"PiRegulator\000"
 763      67756C61 
 763      746F7200 
 764              		.section	.rodata.__func__.7153,"a",%progbits
 765              		.align	2
 766              		.set	.LANCHOR2,. + 0
 767              		.type	__func__.7153, %object
 768              		.size	__func__.7153, 12
 769              	__func__.7153:
 770 0000 63685379 		.ascii	"chSysUnlock\000"
 770      73556E6C 
 770      6F636B00 
 771              		.text
 772              	.Letext0:
 773              		.file 6 "/Applications/Eclipse_e-puck2.app/Contents/Eclipse_e-puck2/Tools/gcc-arm-none-eabi-7-2017
 774              		.file 7 "/Applications/Eclipse_e-puck2.app/Contents/Eclipse_e-puck2/Tools/gcc-arm-none-eabi-7-2017
 775              		.file 8 "/Applications/Eclipse_e-puck2.app/Contents/Eclipse_e-puck2/Tools/gcc-arm-none-eabi-7-2017
 776              		.file 9 "../../lib/e-puck2_main-processor/ChibiOS//os/rt/ports/ARMCMx/compilers/GCC/chtypes.h"
 777              		.file 10 "../../lib/e-puck2_main-processor/ChibiOS//os/rt/include/chsystypes.h"
 778              		.file 11 "../../lib/e-puck2_main-processor/ChibiOS//os/rt/include/chschd.h"
 779              		.file 12 "../../lib/e-puck2_main-processor/ChibiOS//os/ext/CMSIS/include/core_cm4.h"
 780              		.file 13 "../../lib/e-puck2_main-processor/ChibiOS//os/ext/CMSIS/ST/system_stm32f4xx.h"
 781              		.file 14 "../../lib/e-puck2_main-processor/ChibiOS//os/ext/CMSIS/ST/stm32f407xx.h"
 782              		.file 15 "../../lib/e-puck2_main-processor/ChibiOS//os/rt/ports/ARMCMx/chcore.h"
 783              		.file 16 "../../lib/e-puck2_main-processor/ChibiOS//os/rt/ports/ARMCMx/chcore_v7m.h"
 784              		.file 17 "../../lib/e-puck2_main-processor/ChibiOS//os/rt/include/chdebug.h"
 785              		.file 18 "../../lib/e-puck2_main-processor/ChibiOS//os/rt/include/chtm.h"
 786              		.file 19 "../../lib/e-puck2_main-processor/ChibiOS//os/rt/include/chstats.h"
 787              		.file 20 "../../lib/e-puck2_main-processor/ChibiOS//os/rt/include/chsem.h"
 788              		.file 21 "../../lib/e-puck2_main-processor/ChibiOS//os/rt/include/chmtx.h"
 789              		.file 22 "../../lib/e-puck2_main-processor/ChibiOS//os/rt/include/chevents.h"
 790              		.file 23 "../../lib/e-puck2_main-processor/ChibiOS//os/rt/include/chqueues.h"
ARM GAS  /var/folders/by/7g7br9lj2xnbkz1cp6hj5p2r0000gn/T//cc8jtnmj.s 			page 15


 791              		.file 24 "../../lib/e-puck2_main-processor/ChibiOS//os/hal/ports/STM32/STM32F4xx/stm32_dma.h"
 792              		.file 25 "../../lib/e-puck2_main-processor/ChibiOS//os/hal/include/hal_ioblock.h"
 793              		.file 26 "../../lib/e-puck2_main-processor/ChibiOS//os/hal/ports/STM32/LLD/GPIOv2/pal_lld.h"
 794              		.file 27 "../../lib/e-puck2_main-processor/ChibiOS//os/hal/include/adc.h"
 795              		.file 28 "../../lib/e-puck2_main-processor/ChibiOS//os/hal/ports/STM32/STM32F4xx/adc_lld.h"
 796              		.file 29 "../../lib/e-puck2_main-processor/ChibiOS//os/hal/include/can.h"
 797              		.file 30 "../../lib/e-puck2_main-processor/ChibiOS//os/hal/ports/STM32/LLD/can_lld.h"
 798              		.file 31 "../../lib/e-puck2_main-processor/ChibiOS//os/hal/include/dac.h"
 799              		.file 32 "../../lib/e-puck2_main-processor/ChibiOS//os/hal/ports/STM32/LLD/DACv1/dac_lld.h"
 800              		.file 33 "../../lib/e-puck2_main-processor/ChibiOS//os/hal/include/ext.h"
 801              		.file 34 "../../lib/e-puck2_main-processor/ChibiOS//os/hal/ports/STM32/LLD/ext_lld.h"
 802              		.file 35 "../../lib/e-puck2_main-processor/ChibiOS//os/hal/include/gpt.h"
 803              		.file 36 "../../lib/e-puck2_main-processor/ChibiOS//os/hal/ports/STM32/LLD/TIMv1/gpt_lld.h"
 804              		.file 37 "../../lib/e-puck2_main-processor/ChibiOS//os/hal/ports/STM32/LLD/TIMv1/stm32_tim.h"
 805              		.file 38 "../../lib/e-puck2_main-processor/ChibiOS//os/hal/include/i2c.h"
 806              		.file 39 "../../lib/e-puck2_main-processor/ChibiOS//os/hal/ports/STM32/LLD/I2Cv1/i2c_lld.h"
 807              		.file 40 "../../lib/e-puck2_main-processor/ChibiOS//os/hal/include/i2s.h"
 808              		.file 41 "../../lib/e-puck2_main-processor/ChibiOS//os/hal/ports/STM32/LLD/SPIv1/i2s_lld.h"
 809              		.file 42 "../../lib/e-puck2_main-processor/ChibiOS//os/hal/include/pwm.h"
 810              		.file 43 "../../lib/e-puck2_main-processor/ChibiOS//os/hal/ports/STM32/LLD/TIMv1/pwm_lld.h"
 811              		.file 44 "../../lib/e-puck2_main-processor/ChibiOS//os/hal/include/serial.h"
 812              		.file 45 "../../lib/e-puck2_main-processor/ChibiOS//os/hal/ports/STM32/LLD/USARTv1/serial_lld.h"
 813              		.file 46 "../../lib/e-puck2_main-processor/ChibiOS//os/hal/include/sdc.h"
 814              		.file 47 "../../lib/e-puck2_main-processor/ChibiOS//os/hal/ports/STM32/LLD/sdc_lld.h"
 815              		.file 48 "../../lib/e-puck2_main-processor/ChibiOS//os/hal/include/spi.h"
 816              		.file 49 "../../lib/e-puck2_main-processor/ChibiOS//os/hal/ports/STM32/LLD/SPIv1/spi_lld.h"
 817              		.file 50 "../../lib/e-puck2_main-processor/ChibiOS//os/hal/include/usb.h"
 818              		.file 51 "../../lib/e-puck2_main-processor/ChibiOS//os/hal/ports/STM32/LLD/OTGv1/usb_lld.h"
 819              		.file 52 "../../lib/e-puck2_main-processor/ChibiOS//os/hal/ports/STM32/LLD/OTGv1/stm32_otg.h"
 820              		.file 53 "../../lib/e-puck2_main-processor/ChibiOS//os/hal/include/serial_usb.h"
 821              		.file 54 "/Applications/Eclipse_e-puck2.app/Contents/Eclipse_e-puck2/Tools/gcc-arm-none-eabi-7-201
 822              		.file 55 "/Applications/Eclipse_e-puck2.app/Contents/Eclipse_e-puck2/Tools/gcc-arm-none-eabi-7-201
 823              		.file 56 "/Applications/Eclipse_e-puck2.app/Contents/Eclipse_e-puck2/Tools/gcc-arm-none-eabi-7-201
 824              		.file 57 "/Applications/Eclipse_e-puck2.app/Contents/Eclipse_e-puck2/Tools/gcc-arm-none-eabi-7-201
 825              		.file 58 "../../lib/e-puck2_main-processor/src/usbcfg.h"
 826              		.file 59 "../../lib/e-puck2_main-processor/ChibiOS_ext/os/hal/include/../ports/STM32/STM32F4xx/dcm
 827              		.file 60 "/Applications/Eclipse_e-puck2.app/Contents/Eclipse_e-puck2/Tools/gcc-arm-none-eabi-7-201
 828              		.file 61 "../../lib/e-puck2_main-processor/src/msgbus/messagebus.h"
 829              		.file 62 "/Applications/Eclipse_e-puck2.app/Contents/Eclipse_e-puck2/Tools/gcc-arm-none-eabi-7-201
 830              		.file 63 "../../lib/e-puck2_main-processor/src/parameter/parameter.h"
 831              		.file 64 "./main.h"
 832              		.file 65 "../../lib/e-puck2_main-processor/ChibiOS//os/rt/include/chthreads.h"
 833              		.file 66 "../../lib/e-puck2_main-processor/src/motors.h"
 834              		.file 67 "proximity_detection.h"
 835              		.file 68 "./process_image.h"
 836              		.file 69 "../../lib/e-puck2_main-processor/src/sensors/VL53L0X/VL53L0X.h"