ARM GAS  /var/folders/by/7g7br9lj2xnbkz1cp6hj5p2r0000gn/T//cc7XaEG7.s 			page 1


   1              		.cpu cortex-m4
   2              		.eabi_attribute 27, 1
   3              		.eabi_attribute 28, 1
   4              		.eabi_attribute 20, 1
   5              		.eabi_attribute 21, 1
   6              		.eabi_attribute 23, 3
   7              		.eabi_attribute 24, 1
   8              		.eabi_attribute 25, 1
   9              		.eabi_attribute 26, 1
  10              		.eabi_attribute 30, 2
  11              		.eabi_attribute 34, 1
  12              		.eabi_attribute 18, 4
  13              		.file	"process_image.c"
  14              		.text
  15              	.Ltext0:
  16              		.cfi_sections	.debug_frame
  17              		.section	.text.chprintf.constprop.0,"ax",%progbits
  18              		.align	1
  19              		.p2align 4,,15
  20              		.syntax unified
  21              		.thumb
  22              		.thumb_func
  23              		.fpu fpv4-sp-d16
  24              		.type	chprintf.constprop.0, %function
  25              	chprintf.constprop.0:
  26              	.LFB266:
  27              		.file 1 "../../lib/e-puck2_main-processor/ChibiOS//os/hal/lib/streams/chprintf.h"
  28              		.loc 1 69 0
  29              		.cfi_startproc
  30              		@ args = 4, pretend = 12, frame = 8
  31              		@ frame_needed = 0, uses_anonymous_args = 1
  32              	.LVL0:
  33 0000 0EB4     		push	{r1, r2, r3}
  34              		.cfi_def_cfa_offset 12
  35              		.cfi_offset 1, -12
  36              		.cfi_offset 2, -8
  37              		.cfi_offset 3, -4
  38 0002 10B5     		push	{r4, lr}
  39              		.cfi_def_cfa_offset 20
  40              		.cfi_offset 4, -20
  41              		.cfi_offset 14, -16
  42 0004 0A4C     		ldr	r4, .L6
  43              		.loc 1 74 0
  44 0006 0B49     		ldr	r1, .L6+4
  45              		.loc 1 69 0
  46 0008 2368     		ldr	r3, [r4]
  47              		.loc 1 74 0
  48 000a 0B48     		ldr	r0, .L6+8
  49              	.LVL1:
  50              		.loc 1 69 0
  51 000c 83B0     		sub	sp, sp, #12
  52              		.cfi_def_cfa_offset 32
  53              		.loc 1 69 0
  54 000e 0193     		str	r3, [sp, #4]
  55              	.LVL2:
  56              		.loc 1 73 0
  57 0010 06AB     		add	r3, sp, #24
ARM GAS  /var/folders/by/7g7br9lj2xnbkz1cp6hj5p2r0000gn/T//cc7XaEG7.s 			page 2


  58              		.loc 1 74 0
  59 0012 1A46     		mov	r2, r3
  60              		.loc 1 73 0
  61 0014 0093     		str	r3, [sp]
  62              		.loc 1 74 0
  63 0016 FFF7FEFF 		bl	chvprintf
  64              	.LVL3:
  65              		.loc 1 78 0
  66 001a 019A     		ldr	r2, [sp, #4]
  67 001c 2368     		ldr	r3, [r4]
  68 001e 9A42     		cmp	r2, r3
  69 0020 04D1     		bne	.L5
  70 0022 03B0     		add	sp, sp, #12
  71              		.cfi_remember_state
  72              		.cfi_def_cfa_offset 20
  73              		@ sp needed
  74 0024 BDE81040 		pop	{r4, lr}
  75              		.cfi_restore 14
  76              		.cfi_restore 4
  77              		.cfi_def_cfa_offset 12
  78 0028 03B0     		add	sp, sp, #12
  79              		.cfi_restore 3
  80              		.cfi_restore 2
  81              		.cfi_restore 1
  82              		.cfi_def_cfa_offset 0
  83 002a 7047     		bx	lr
  84              	.L5:
  85              		.cfi_restore_state
  86 002c FFF7FEFF 		bl	__stack_chk_fail
  87              	.LVL4:
  88              	.L7:
  89              		.align	2
  90              	.L6:
  91 0030 00000000 		.word	__stack_chk_guard
  92 0034 00000000 		.word	.LC0
  93 0038 00000000 		.word	SDU1
  94              		.cfi_endproc
  95              	.LFE266:
  96              		.size	chprintf.constprop.0, .-chprintf.constprop.0
  97              		.section	.text.CaptureImage,"ax",%progbits
  98              		.align	1
  99              		.p2align 4,,15
 100              		.syntax unified
 101              		.thumb
 102              		.thumb_func
 103              		.fpu fpv4-sp-d16
 104              		.type	CaptureImage, %function
 105              	CaptureImage:
 106              	.LFB260:
 107              		.file 2 "process_image.c"
 108              		.loc 2 267 0
 109              		.cfi_startproc
 110              		@ Volatile: function does not return.
 111              		@ args = 0, pretend = 0, frame = 8
 112              		@ frame_needed = 0, uses_anonymous_args = 0
 113              	.LVL5:
 114 0000 80B5     		push	{r7, lr}
ARM GAS  /var/folders/by/7g7br9lj2xnbkz1cp6hj5p2r0000gn/T//cc7XaEG7.s 			page 3


 115              		.cfi_def_cfa_offset 8
 116              		.cfi_offset 7, -8
 117              		.cfi_offset 14, -4
 118              	.LBB51:
 119              	.LBB52:
 120              		.file 3 "../../lib/e-puck2_main-processor/ChibiOS//os/rt/include/chregistry.h"
 121              		.loc 3 135 0
 122 0002 234C     		ldr	r4, .L14
 123              	.LBE52:
 124              	.LBE51:
 125              		.loc 2 267 0
 126 0004 234A     		ldr	r2, .L14+4
 127              	.LBB55:
 128              	.LBB53:
 129              		.loc 3 135 0
 130 0006 A369     		ldr	r3, [r4, #24]
 131 0008 2349     		ldr	r1, .L14+8
 132              	.LBE53:
 133              	.LBE55:
 134              		.loc 2 267 0
 135 000a 1668     		ldr	r6, [r2]
 136              	.LBB56:
 137              	.LBB54:
 138              		.loc 3 135 0
 139 000c 9961     		str	r1, [r3, #24]
 140              	.LBE54:
 141              	.LBE56:
 142              		.loc 2 267 0
 143 000e 86B0     		sub	sp, sp, #24
 144              		.cfi_def_cfa_offset 32
 145              		.loc 2 273 0
 146 0010 0223     		movs	r3, #2
 147 0012 2025     		movs	r5, #32
 148 0014 0A22     		movs	r2, #10
 149 0016 0021     		movs	r1, #0
 150 0018 0093     		str	r3, [sp]
 151              		.loc 2 267 0
 152 001a 0596     		str	r6, [sp, #20]
 153              		.loc 2 273 0
 154 001c 4FF42073 		mov	r3, #640
 155 0020 CDE90155 		strd	r5, r5, [sp, #4]
 156 0024 3020     		movs	r0, #48
 157              	.LVL6:
 158 0026 1D4E     		ldr	r6, .L14+12
 159              	.LBB57:
 160              	.LBB58:
 161              	.LBB59:
 162              	.LBB60:
 163              		.file 4 "../../lib/e-puck2_main-processor/ChibiOS//os/rt/include/chsys.h"
 164              		.loc 4 367 0
 165 0028 1D4F     		ldr	r7, .L14+16
 166              	.LBE60:
 167              	.LBE59:
 168              	.LBE58:
 169              	.LBE57:
 170              		.loc 2 273 0
 171 002a FFF7FEFF 		bl	po8030_advanced_config
ARM GAS  /var/folders/by/7g7br9lj2xnbkz1cp6hj5p2r0000gn/T//cc7XaEG7.s 			page 4


 172              	.LVL7:
 173              		.loc 2 274 0
 174 002e FFF7FEFF 		bl	dcmi_enable_double_buffering
 175              	.LVL8:
 176              		.loc 2 275 0
 177 0032 0020     		movs	r0, #0
 178 0034 FFF7FEFF 		bl	dcmi_set_capture_mode
 179              	.LVL9:
 180              	.LBB78:
 181              	.LBB75:
 182              	.LBB65:
 183              	.LBB66:
 184              		.file 5 "../../lib/e-puck2_main-processor/ChibiOS//os/rt/include/chbsem.h"
 185              		.loc 5 271 0
 186 0038 B046     		mov	r8, r6
 187              	.LBE66:
 188              	.LBE65:
 189              	.LBE75:
 190              	.LBE78:
 191              		.loc 2 276 0
 192 003a FFF7FEFF 		bl	dcmi_prepare
 193              	.LVL10:
 194 003e 13E0     		b	.L11
 195              	.LVL11:
 196              	.L9:
 197              	.LBB79:
 198              	.LBB76:
 199              		.loc 5 286 0
 200 0040 FFF7FEFF 		bl	chSchRescheduleS
 201              	.LVL12:
 202              	.LBB68:
 203              	.LBB64:
 204              		.loc 4 360 0
 205 0044 FFF7FEFF 		bl	_dbg_check_unlock
 206              	.LVL13:
 207              		.loc 4 361 0
 208 0048 FFF7FEFF 		bl	_stats_stop_measure_crit_thd
 209              	.LVL14:
 210              		.loc 4 367 0
 211 004c 2368     		ldr	r3, [r4]
 212 004e A342     		cmp	r3, r4
 213 0050 07D0     		beq	.L10
 214 0052 A269     		ldr	r2, [r4, #24]
 215 0054 9B68     		ldr	r3, [r3, #8]
 216 0056 9268     		ldr	r2, [r2, #8]
 217 0058 9A42     		cmp	r2, r3
 218 005a 02D2     		bcs	.L10
 219 005c 3846     		mov	r0, r7
 220 005e FFF7FEFF 		bl	chSysHalt
 221              	.LVL15:
 222              	.L10:
 223              	.LBB61:
 224              	.LBB62:
 225              	.LBB63:
 226              		.file 6 "../../lib/e-puck2_main-processor/ChibiOS//os/ext/CMSIS/include/core_cmFunc.h"
 227              		.loc 6 546 0
 228 0062 0023     		movs	r3, #0
ARM GAS  /var/folders/by/7g7br9lj2xnbkz1cp6hj5p2r0000gn/T//cc7XaEG7.s 			page 5


 229              		.syntax unified
 230              	@ 546 "../../lib/e-puck2_main-processor/ChibiOS//os/ext/CMSIS/include/core_cmFunc.h" 1
 231 0064 83F31188 		MSR basepri, r3
 232              	@ 0 "" 2
 233              	.LVL16:
 234              		.thumb
 235              		.syntax unified
 236              	.L11:
 237              	.LBE63:
 238              	.LBE62:
 239              	.LBE61:
 240              	.LBE64:
 241              	.LBE68:
 242              	.LBE76:
 243              	.LBE79:
 244              		.loc 2 280 0 discriminator 1
 245 0068 FFF7FEFF 		bl	dcmi_capture_start
 246              	.LVL17:
 247              		.loc 2 282 0 discriminator 1
 248 006c FFF7FEFF 		bl	wait_image_ready
 249              	.LVL18:
 250              	.LBB80:
 251              	.LBB77:
 252              	.LBB69:
 253              	.LBB70:
 254              	.LBB71:
 255              	.LBB72:
 256              	.LBB73:
 257              		.loc 6 546 0 discriminator 1
 258              		.syntax unified
 259              	@ 546 "../../lib/e-puck2_main-processor/ChibiOS//os/ext/CMSIS/include/core_cmFunc.h" 1
 260 0070 85F31188 		MSR basepri, r5
 261              	@ 0 "" 2
 262              	.LVL19:
 263              		.thumb
 264              		.syntax unified
 265              	.LBE73:
 266              	.LBE72:
 267              	.LBE71:
 268              		.loc 4 349 0 discriminator 1
 269 0074 FFF7FEFF 		bl	_stats_start_measure_crit_thd
 270              	.LVL20:
 271              		.loc 4 350 0 discriminator 1
 272 0078 FFF7FEFF 		bl	_dbg_check_lock
 273              	.LVL21:
 274              	.LBE70:
 275              	.LBE69:
 276              	.LBB74:
 277              	.LBB67:
 278              		.loc 5 268 0 discriminator 1
 279 007c FFF7FEFF 		bl	chDbgCheckClassI
 280              	.LVL22:
 281              		.loc 5 270 0 discriminator 1
 282 0080 B368     		ldr	r3, [r6, #8]
 283 0082 002B     		cmp	r3, #0
 284 0084 DCDC     		bgt	.L9
 285              		.loc 5 271 0
ARM GAS  /var/folders/by/7g7br9lj2xnbkz1cp6hj5p2r0000gn/T//cc7XaEG7.s 			page 6


 286 0086 4046     		mov	r0, r8
 287 0088 FFF7FEFF 		bl	chSemSignalI
 288              	.LVL23:
 289 008c D8E7     		b	.L9
 290              	.L15:
 291 008e 00BF     		.align	2
 292              	.L14:
 293 0090 00000000 		.word	ch
 294 0094 00000000 		.word	__stack_chk_guard
 295 0098 00000000 		.word	.LANCHOR0
 296 009c 00000000 		.word	.LANCHOR1
 297 00a0 00000000 		.word	.LANCHOR2
 298              	.LBE67:
 299              	.LBE74:
 300              	.LBE77:
 301              	.LBE80:
 302              		.cfi_endproc
 303              	.LFE260:
 304              		.size	CaptureImage, .-CaptureImage
 305              		.section	.text.find_color,"ax",%progbits
 306              		.align	1
 307              		.p2align 4,,15
 308              		.global	find_color
 309              		.syntax unified
 310              		.thumb
 311              		.thumb_func
 312              		.fpu fpv4-sp-d16
 313              		.type	find_color, %function
 314              	find_color:
 315              	.LFB257:
 316              		.loc 2 37 0
 317              		.cfi_startproc
 318              		@ args = 0, pretend = 0, frame = 8
 319              		@ frame_needed = 0, uses_anonymous_args = 0
 320              	.LVL24:
 321 0000 2DE9F04F 		push	{r4, r5, r6, r7, r8, r9, r10, fp, lr}
 322              		.cfi_def_cfa_offset 36
 323              		.cfi_offset 4, -36
 324              		.cfi_offset 5, -32
 325              		.cfi_offset 6, -28
 326              		.cfi_offset 7, -24
 327              		.cfi_offset 8, -20
 328              		.cfi_offset 9, -16
 329              		.cfi_offset 10, -12
 330              		.cfi_offset 11, -8
 331              		.cfi_offset 14, -4
 332 0004 454B     		ldr	r3, .L44
 333 0006 85B0     		sub	sp, sp, #20
 334              		.cfi_def_cfa_offset 56
 335              		.loc 2 38 0
 336 0008 0025     		movs	r5, #0
 337              		.loc 2 37 0
 338 000a 1B68     		ldr	r3, [r3]
 339 000c 0393     		str	r3, [sp, #12]
 340              	.LVL25:
 341 000e 8246     		mov	r10, r0
 342 0010 00F1A00B 		add	fp, r0, #160
ARM GAS  /var/folders/by/7g7br9lj2xnbkz1cp6hj5p2r0000gn/T//cc7XaEG7.s 			page 7


 343              		.loc 2 38 0
 344 0014 A946     		mov	r9, r5
 345 0016 2F46     		mov	r7, r5
 346              	.LVL26:
 347              	.L17:
 348              	.LBB81:
 349              		.loc 2 51 0 discriminator 3
 350 0018 9AF80080 		ldrb	r8, [r10]	@ zero_extendqisi2
 351              		.loc 2 52 0 discriminator 3
 352 001c 9AF80160 		ldrb	r6, [r10, #1]	@ zero_extendqisi2
 353              		.loc 2 56 0 discriminator 3
 354 0020 3F49     		ldr	r1, .L44+4
 355 0022 4048     		ldr	r0, .L44+8
 356              		.loc 2 52 0 discriminator 3
 357 0024 4FEAC804 		lsl	r4, r8, #3
 358 0028 04F03804 		and	r4, r4, #56
 359 002c 44EA5614 		orr	r4, r4, r6, lsr #5
 360              		.loc 2 51 0 discriminator 3
 361 0030 4FEAD808 		lsr	r8, r8, #3
 362              	.LVL27:
 363              		.loc 2 53 0 discriminator 3
 364 0034 06F01F06 		and	r6, r6, #31
 365              	.LVL28:
 366              		.loc 2 56 0 discriminator 3
 367 0038 0096     		str	r6, [sp]
 368 003a 2346     		mov	r3, r4
 369 003c 4246     		mov	r2, r8
 370 003e 0AF1020A 		add	r10, r10, #2
 371              	.LVL29:
 372 0042 FFF7FEFF 		bl	chprintf.constprop.0
 373              	.LVL30:
 374              		.loc 2 59 0 discriminator 3
 375 0046 2544     		add	r5, r5, r4
 376              	.LVL31:
 377              		.loc 2 58 0 discriminator 3
 378 0048 4744     		add	r7, r7, r8
 379              	.LVL32:
 380              		.loc 2 60 0 discriminator 3
 381 004a 4E44     		add	r6, r6, r9
 382              	.LVL33:
 383              		.loc 2 49 0 discriminator 3
 384 004c D345     		cmp	fp, r10
 385              		.loc 2 59 0 discriminator 3
 386 004e ADB2     		uxth	r5, r5
 387              		.loc 2 58 0 discriminator 3
 388 0050 BFB2     		uxth	r7, r7
 389              	.LVL34:
 390              		.loc 2 60 0 discriminator 3
 391 0052 1FFA86F9 		uxth	r9, r6
 392              	.LVL35:
 393              		.loc 2 49 0 discriminator 3
 394 0056 DFD1     		bne	.L17
 395              	.LBE81:
 396              		.loc 2 63 0
 397 0058 334E     		ldr	r6, .L44+12
 398              		.loc 2 68 0
 399 005a 3149     		ldr	r1, .L44+4
ARM GAS  /var/folders/by/7g7br9lj2xnbkz1cp6hj5p2r0000gn/T//cc7XaEG7.s 			page 8


 400 005c 3148     		ldr	r0, .L44+8
 401              		.loc 2 63 0
 402 005e A6FB0737 		umull	r3, r7, r6, r7
 403              	.LVL36:
 404              		.loc 2 64 0
 405 0062 A6FB0534 		umull	r3, r4, r6, r5
 406              	.LVL37:
 407              		.loc 2 65 0
 408 0066 A6FB0936 		umull	r3, r6, r6, r9
 409              		.loc 2 63 0
 410 006a C7F3CF17 		ubfx	r7, r7, #7, #16
 411              	.LVL38:
 412              		.loc 2 64 0
 413 006e C4F3CF14 		ubfx	r4, r4, #7, #16
 414              	.LVL39:
 415              		.loc 2 65 0
 416 0072 C6F3CF16 		ubfx	r6, r6, #7, #16
 417              	.LVL40:
 418              		.loc 2 68 0
 419 0076 0096     		str	r6, [sp]
 420 0078 2346     		mov	r3, r4
 421 007a 3A46     		mov	r2, r7
 422 007c FFF7FEFF 		bl	chprintf.constprop.0
 423              	.LVL41:
 424              		.loc 2 75 0
 425 0080 0C2F     		cmp	r7, #12
 426 0082 01D9     		bls	.L18
 427              		.loc 2 75 0 is_stmt 0 discriminator 1
 428 0084 092C     		cmp	r4, #9
 429 0086 25D9     		bls	.L43
 430              	.L18:
 431              		.loc 2 76 0 is_stmt 1
 432 0088 0C2C     		cmp	r4, #12
 433 008a 29D9     		bls	.L21
 434              		.loc 2 76 0 is_stmt 0 discriminator 1
 435 008c 092F     		cmp	r7, #9
 436 008e 1AD8     		bhi	.L22
 437              		.loc 2 76 0 discriminator 2
 438 0090 0D2E     		cmp	r6, #13
 439 0092 3AD9     		bls	.L23
 440              		.loc 2 77 0 is_stmt 1
 441 0094 042F     		cmp	r7, #4
 442 0096 01D8     		bhi	.L19
 443 0098 1D2C     		cmp	r4, #29
 444 009a 25D9     		bls	.L27
 445              	.L19:
 446              		.loc 2 82 0
 447 009c 0021     		movs	r1, #0
 448 009e 0846     		mov	r0, r1
 449 00a0 FFF7FEFF 		bl	set_led
 450              	.LVL42:
 451              	.L40:
 452              		.loc 2 87 0
 453 00a4 0021     		movs	r1, #0
 454 00a6 0120     		movs	r0, #1
 455 00a8 FFF7FEFF 		bl	set_led
 456              	.LVL43:
ARM GAS  /var/folders/by/7g7br9lj2xnbkz1cp6hj5p2r0000gn/T//cc7XaEG7.s 			page 9


 457              	.L30:
 458              		.loc 2 92 0
 459 00ac 1B4B     		ldr	r3, .L44
 460 00ae 039A     		ldr	r2, [sp, #12]
 461 00b0 1B68     		ldr	r3, [r3]
 462 00b2 9A42     		cmp	r2, r3
 463 00b4 08BF     		it	eq
 464 00b6 0021     		moveq	r1, #0
 465 00b8 25D1     		bne	.L42
 466              	.L41:
 467 00ba 0220     		movs	r0, #2
 468              		.loc 2 96 0
 469 00bc 05B0     		add	sp, sp, #20
 470              		.cfi_remember_state
 471              		.cfi_def_cfa_offset 36
 472              		@ sp needed
 473 00be BDE8F04F 		pop	{r4, r5, r6, r7, r8, r9, r10, fp, lr}
 474              		.cfi_restore 14
 475              		.cfi_restore 11
 476              		.cfi_restore 10
 477              		.cfi_restore 9
 478              		.cfi_restore 8
 479              		.cfi_restore 7
 480              		.cfi_restore 6
 481              		.cfi_restore 5
 482              		.cfi_restore 4
 483              		.cfi_def_cfa_offset 0
 484              	.LVL44:
 485              		.loc 2 92 0
 486 00c2 FFF7FEBF 		b	set_led
 487              	.LVL45:
 488              	.L22:
 489              		.cfi_restore_state
 490              		.loc 2 77 0
 491 00c6 0D2E     		cmp	r6, #13
 492 00c8 E8D8     		bhi	.L19
 493              	.L25:
 494              		.loc 2 82 0
 495 00ca 0021     		movs	r1, #0
 496              	.L39:
 497              		.loc 2 80 0
 498 00cc 0020     		movs	r0, #0
 499 00ce FFF7FEFF 		bl	set_led
 500              	.LVL46:
 501 00d2 E7E7     		b	.L40
 502              	.L43:
 503              		.loc 2 77 0 discriminator 2
 504 00d4 0D2E     		cmp	r6, #13
 505 00d6 E1D8     		bhi	.L19
 506              		.loc 2 80 0
 507 00d8 18BF     		it	ne
 508 00da 0121     		movne	r1, #1
 509              		.loc 2 79 0
 510 00dc F6D1     		bne	.L39
 511 00de F4E7     		b	.L25
 512              	.L21:
 513              		.loc 2 77 0
ARM GAS  /var/folders/by/7g7br9lj2xnbkz1cp6hj5p2r0000gn/T//cc7XaEG7.s 			page 10


 514 00e0 0D2E     		cmp	r6, #13
 515 00e2 DBD9     		bls	.L19
 516 00e4 042F     		cmp	r7, #4
 517 00e6 D9D8     		bhi	.L19
 518              	.L27:
 519              		.loc 2 82 0
 520 00e8 0021     		movs	r1, #0
 521 00ea 0846     		mov	r0, r1
 522 00ec FFF7FEFF 		bl	set_led
 523              	.LVL47:
 524              		.loc 2 87 0
 525 00f0 0021     		movs	r1, #0
 526 00f2 0120     		movs	r0, #1
 527 00f4 FFF7FEFF 		bl	set_led
 528              	.LVL48:
 529              		.loc 2 90 0
 530 00f8 084B     		ldr	r3, .L44
 531 00fa 039A     		ldr	r2, [sp, #12]
 532 00fc 1B68     		ldr	r3, [r3]
 533 00fe 9A42     		cmp	r2, r3
 534 0100 08BF     		it	eq
 535 0102 0121     		moveq	r1, #1
 536 0104 D9D0     		beq	.L41
 537              	.LVL49:
 538              	.L42:
 539              		.loc 2 92 0
 540 0106 FFF7FEFF 		bl	__stack_chk_fail
 541              	.LVL50:
 542              	.L23:
 543              		.loc 2 82 0
 544 010a 0021     		movs	r1, #0
 545 010c 0846     		mov	r0, r1
 546 010e FFF7FEFF 		bl	set_led
 547              	.LVL51:
 548              		.loc 2 85 0
 549 0112 0121     		movs	r1, #1
 550 0114 0846     		mov	r0, r1
 551 0116 FFF7FEFF 		bl	set_led
 552              	.LVL52:
 553 011a C7E7     		b	.L30
 554              	.L45:
 555              		.align	2
 556              	.L44:
 557 011c 00000000 		.word	__stack_chk_guard
 558 0120 00000000 		.word	.LC0
 559 0124 00000000 		.word	SDU1
 560 0128 CDCCCCCC 		.word	-858993459
 561              		.cfi_endproc
 562              	.LFE257:
 563              		.size	find_color, .-find_color
 564              		.section	.text.ProcessImage,"ax",%progbits
 565              		.align	1
 566              		.p2align 4,,15
 567              		.syntax unified
 568              		.thumb
 569              		.thumb_func
 570              		.fpu fpv4-sp-d16
ARM GAS  /var/folders/by/7g7br9lj2xnbkz1cp6hj5p2r0000gn/T//cc7XaEG7.s 			page 11


 571              		.type	ProcessImage, %function
 572              	ProcessImage:
 573              	.LFB261:
 574              		.loc 2 289 0
 575              		.cfi_startproc
 576              		@ args = 0, pretend = 0, frame = 648
 577              		@ frame_needed = 0, uses_anonymous_args = 0
 578              	.LVL53:
 579 0000 30B5     		push	{r4, r5, lr}
 580              		.cfi_def_cfa_offset 12
 581              		.cfi_offset 4, -12
 582              		.cfi_offset 5, -8
 583              		.cfi_offset 14, -4
 584              	.LBB82:
 585              	.LBB83:
 586              		.loc 3 135 0
 587 0002 134A     		ldr	r2, .L52
 588              	.LBE83:
 589              	.LBE82:
 590              		.loc 2 289 0
 591 0004 134B     		ldr	r3, .L52+4
 592              	.LBB85:
 593              	.LBB84:
 594              		.loc 3 135 0
 595 0006 9269     		ldr	r2, [r2, #24]
 596 0008 1349     		ldr	r1, .L52+8
 597 000a 9161     		str	r1, [r2, #24]
 598              	.LBE84:
 599              	.LBE85:
 600              		.loc 2 289 0
 601 000c ADF5237D 		sub	sp, sp, #652
 602              		.cfi_def_cfa_offset 664
 603              		.loc 2 295 0
 604 0010 01AC     		add	r4, sp, #4
 605              		.loc 2 289 0
 606 0012 1B68     		ldr	r3, [r3]
 607 0014 A193     		str	r3, [sp, #644]
 608              		.loc 2 295 0
 609 0016 2046     		mov	r0, r4
 610              	.LVL54:
 611 0018 4FF42072 		mov	r2, #640
 612 001c 0021     		movs	r1, #0
 613 001e FFF7FEFF 		bl	memset
 614              	.LVL55:
 615              	.LBB86:
 616              	.LBB87:
 617              		.loc 5 143 0
 618 0022 0E4D     		ldr	r5, .L52+12
 619              	.L48:
 620              	.LVL56:
 621 0024 2846     		mov	r0, r5
 622 0026 FFF7FEFF 		bl	chSemWait
 623              	.LVL57:
 624              	.LBE87:
 625              	.LBE86:
 626              		.loc 2 307 0
 627 002a FFF7FEFF 		bl	dcmi_get_last_image_ptr
ARM GAS  /var/folders/by/7g7br9lj2xnbkz1cp6hj5p2r0000gn/T//cc7XaEG7.s 			page 12


 628              	.LVL58:
 629 002e 0023     		movs	r3, #0
 630              	.LVL59:
 631              	.L47:
 632              	.LBB88:
 633              		.loc 2 314 0 discriminator 3
 634 0030 C3F34E02 		ubfx	r2, r3, #1, #15
 635 0034 C15C     		ldrb	r1, [r0, r3]	@ zero_extendqisi2
 636 0036 A154     		strb	r1, [r4, r2]
 637              		.loc 2 315 0 discriminator 3
 638 0038 C118     		adds	r1, r0, r3
 639 003a 2244     		add	r2, r2, r4
 640 003c 0233     		adds	r3, r3, #2
 641              	.LVL60:
 642 003e 4978     		ldrb	r1, [r1, #1]	@ zero_extendqisi2
 643 0040 5170     		strb	r1, [r2, #1]
 644              		.loc 2 312 0 discriminator 3
 645 0042 B3F5A07F 		cmp	r3, #320
 646 0046 F3D1     		bne	.L47
 647              	.LVL61:
 648              	.LBE88:
 649              		.loc 2 320 0
 650 0048 2046     		mov	r0, r4
 651              	.LVL62:
 652 004a FFF7FEFF 		bl	find_color
 653              	.LVL63:
 654              		.loc 2 305 0
 655 004e E9E7     		b	.L48
 656              	.L53:
 657              		.align	2
 658              	.L52:
 659 0050 00000000 		.word	ch
 660 0054 00000000 		.word	__stack_chk_guard
 661 0058 00000000 		.word	.LANCHOR3
 662 005c 00000000 		.word	.LANCHOR1
 663              		.cfi_endproc
 664              	.LFE261:
 665              		.size	ProcessImage, .-ProcessImage
 666              		.section	.text.extract_color,"ax",%progbits
 667              		.align	1
 668              		.p2align 4,,15
 669              		.global	extract_color
 670              		.syntax unified
 671              		.thumb
 672              		.thumb_func
 673              		.fpu fpv4-sp-d16
 674              		.type	extract_color, %function
 675              	extract_color:
 676              	.LFB258:
 677              		.loc 2 103 0
 678              		.cfi_startproc
 679              		@ args = 0, pretend = 0, frame = 8
 680              		@ frame_needed = 0, uses_anonymous_args = 0
 681              	.LVL64:
 682 0000 F0B5     		push	{r4, r5, r6, r7, lr}
 683              		.cfi_def_cfa_offset 20
 684              		.cfi_offset 4, -20
ARM GAS  /var/folders/by/7g7br9lj2xnbkz1cp6hj5p2r0000gn/T//cc7XaEG7.s 			page 13


 685              		.cfi_offset 5, -16
 686              		.cfi_offset 6, -12
 687              		.cfi_offset 7, -8
 688              		.cfi_offset 14, -4
 689 0002 274C     		ldr	r4, .L78
 690 0004 83B0     		sub	sp, sp, #12
 691              		.cfi_def_cfa_offset 32
 692              		.loc 2 103 0
 693 0006 2368     		ldr	r3, [r4]
 694 0008 0193     		str	r3, [sp, #4]
 695              	.LVL65:
 696 000a 0546     		mov	r5, r0
 697 000c 431E     		subs	r3, r0, #1
 698              		.loc 2 107 0
 699 000e 0022     		movs	r2, #0
 700 0010 00F27F20 		addw	r0, r0, #639
 701              	.LVL66:
 702              	.L55:
 703              	.LBB89:
 704              		.loc 2 114 0 discriminator 3
 705 0014 13F8011F 		ldrb	r1, [r3, #1]!	@ zero_extendqisi2
 706              		.loc 2 113 0 discriminator 3
 707 0018 9842     		cmp	r0, r3
 708              		.loc 2 114 0 discriminator 3
 709 001a 0A44     		add	r2, r2, r1
 710              	.LVL67:
 711              		.loc 2 113 0 discriminator 3
 712 001c FAD1     		bne	.L55
 713              	.LVL68:
 714              	.LBE89:
 715              		.loc 2 116 0
 716 001e 214B     		ldr	r3, .L78+4
 717 0020 2978     		ldrb	r1, [r5]	@ zero_extendqisi2
 718 0022 A3FB0232 		umull	r3, r2, r3, r2
 719              	.LVL69:
 720 0026 520A     		lsrs	r2, r2, #9
 721 0028 0F32     		adds	r2, r2, #15
 722              		.loc 2 105 0
 723 002a 0020     		movs	r0, #0
 724              		.loc 2 123 0
 725 002c 40F27526 		movw	r6, #629
 726              	.LVL70:
 727              	.L56:
 728 0030 431C     		adds	r3, r0, #1
 729              		.loc 2 127 0
 730 0032 9142     		cmp	r1, r2
 731 0034 9BB2     		uxth	r3, r3
 732 0036 1CD9     		bls	.L58
 733              	.L76:
 734              		.loc 2 127 0 is_stmt 0 discriminator 1
 735 0038 2918     		adds	r1, r5, r0
 736 003a 897A     		ldrb	r1, [r1, #10]	@ zero_extendqisi2
 737 003c 9142     		cmp	r1, r2
 738 003e 18D2     		bcs	.L58
 739              	.LVL71:
 740              		.loc 2 135 0 is_stmt 1
 741 0040 B342     		cmp	r3, r6
ARM GAS  /var/folders/by/7g7br9lj2xnbkz1cp6hj5p2r0000gn/T//cc7XaEG7.s 			page 14


 742 0042 22D8     		bhi	.L68
 743              		.loc 2 135 0 is_stmt 0 discriminator 1
 744 0044 10B3     		cbz	r0, .L57
 745 0046 03F1FF3C 		add	ip, r3, #-1
 746 004a AC44     		add	ip, ip, r5
 747              	.LVL72:
 748              	.L65:
 749              		.loc 2 141 0 is_stmt 1
 750 004c 1CF8011F 		ldrb	r1, [ip, #1]!	@ zero_extendqisi2
 751 0050 9142     		cmp	r1, r2
 752 0052 9FB2     		uxth	r7, r3
 753 0054 12D9     		bls	.L61
 754              		.loc 2 141 0 is_stmt 0 discriminator 1
 755 0056 1CF80AEC 		ldrb	lr, [ip, #-10]	@ zero_extendqisi2
 756 005a 9645     		cmp	lr, r2
 757 005c 0ED2     		bcs	.L61
 758              	.LVL73:
 759              		.loc 2 160 0 is_stmt 1
 760 005e 3B1A     		subs	r3, r7, r0
 761 0060 272B     		cmp	r3, #39
 762 0062 19DC     		bgt	.L75
 763              	.LVL74:
 764              		.loc 2 123 0
 765 0064 B742     		cmp	r7, r6
 766 0066 10D8     		bhi	.L68
 767 0068 3846     		mov	r0, r7
 768 006a 431C     		adds	r3, r0, #1
 769              		.loc 2 127 0
 770 006c 9142     		cmp	r1, r2
 771 006e 9BB2     		uxth	r3, r3
 772 0070 E2D8     		bhi	.L76
 773              	.LVL75:
 774              	.L58:
 775              		.loc 2 123 0 discriminator 1
 776 0072 B342     		cmp	r3, r6
 777 0074 09D8     		bhi	.L68
 778 0076 E95C     		ldrb	r1, [r5, r3]	@ zero_extendqisi2
 779              	.LVL76:
 780              		.loc 2 123 0 is_stmt 0
 781 0078 1846     		mov	r0, r3
 782 007a D9E7     		b	.L56
 783              	.LVL77:
 784              	.L61:
 785 007c 0137     		adds	r7, r7, #1
 786 007e BFB2     		uxth	r7, r7
 787              	.LVL78:
 788              		.loc 2 139 0 is_stmt 1
 789 0080 B7F5207F 		cmp	r7, #640
 790 0084 03F10103 		add	r3, r3, #1
 791 0088 E0D1     		bne	.L65
 792              	.LVL79:
 793              	.L68:
 794              		.loc 2 173 0
 795 008a 0020     		movs	r0, #0
 796              	.LVL80:
 797              	.L57:
 798              		.loc 2 180 0
ARM GAS  /var/folders/by/7g7br9lj2xnbkz1cp6hj5p2r0000gn/T//cc7XaEG7.s 			page 15


 799 008c 019A     		ldr	r2, [sp, #4]
 800 008e 2368     		ldr	r3, [r4]
 801 0090 9A42     		cmp	r2, r3
 802 0092 03D1     		bne	.L77
 803 0094 03B0     		add	sp, sp, #12
 804              		.cfi_remember_state
 805              		.cfi_def_cfa_offset 20
 806              		@ sp needed
 807 0096 F0BD     		pop	{r4, r5, r6, r7, pc}
 808              	.LVL81:
 809              	.L75:
 810              		.cfi_restore_state
 811              		.loc 2 177 0
 812 0098 0120     		movs	r0, #1
 813 009a F7E7     		b	.L57
 814              	.LVL82:
 815              	.L77:
 816              		.loc 2 180 0
 817 009c FFF7FEFF 		bl	__stack_chk_fail
 818              	.LVL83:
 819              	.L79:
 820              		.align	2
 821              	.L78:
 822 00a0 00000000 		.word	__stack_chk_guard
 823 00a4 CDCCCCCC 		.word	-858993459
 824              		.cfi_endproc
 825              	.LFE258:
 826              		.size	extract_color, .-extract_color
 827              		.section	.text.extract_line_width,"ax",%progbits
 828              		.align	1
 829              		.p2align 4,,15
 830              		.global	extract_line_width
 831              		.syntax unified
 832              		.thumb
 833              		.thumb_func
 834              		.fpu fpv4-sp-d16
 835              		.type	extract_line_width, %function
 836              	extract_line_width:
 837              	.LFB259:
 838              		.loc 2 183 0
 839              		.cfi_startproc
 840              		@ args = 0, pretend = 0, frame = 8
 841              		@ frame_needed = 0, uses_anonymous_args = 0
 842              	.LVL84:
 843 0000 F0B5     		push	{r4, r5, r6, r7, lr}
 844              		.cfi_def_cfa_offset 20
 845              		.cfi_offset 4, -20
 846              		.cfi_offset 5, -16
 847              		.cfi_offset 6, -12
 848              		.cfi_offset 7, -8
 849              		.cfi_offset 14, -4
 850 0002 2B4C     		ldr	r4, .L106
 851 0004 83B0     		sub	sp, sp, #12
 852              		.cfi_def_cfa_offset 32
 853              		.loc 2 183 0
 854 0006 2368     		ldr	r3, [r4]
 855 0008 0193     		str	r3, [sp, #4]
ARM GAS  /var/folders/by/7g7br9lj2xnbkz1cp6hj5p2r0000gn/T//cc7XaEG7.s 			page 16


 856              	.LVL85:
 857 000a 00F27F25 		addw	r5, r0, #639
 858 000e 431E     		subs	r3, r0, #1
 859              		.loc 2 187 0
 860 0010 0022     		movs	r2, #0
 861              	.LVL86:
 862              	.L81:
 863              	.LBB90:
 864              		.loc 2 193 0 discriminator 3
 865 0012 13F8011F 		ldrb	r1, [r3, #1]!	@ zero_extendqisi2
 866              		.loc 2 192 0 discriminator 3
 867 0016 9D42     		cmp	r5, r3
 868              		.loc 2 193 0 discriminator 3
 869 0018 0A44     		add	r2, r2, r1
 870              	.LVL87:
 871              		.loc 2 192 0 discriminator 3
 872 001a FAD1     		bne	.L81
 873              	.LVL88:
 874              	.LBE90:
 875              		.loc 2 195 0
 876 001c 254B     		ldr	r3, .L106+4
 877 001e 0578     		ldrb	r5, [r0]	@ zero_extendqisi2
 878 0020 A3FB0232 		umull	r3, r2, r3, r2
 879              	.LVL89:
 880 0024 520A     		lsrs	r2, r2, #9
 881 0026 0F32     		adds	r2, r2, #15
 882              		.loc 2 185 0
 883 0028 0021     		movs	r1, #0
 884              		.loc 2 200 0
 885 002a 40F27526 		movw	r6, #629
 886              	.LVL90:
 887              	.L82:
 888 002e 4B1C     		adds	r3, r1, #1
 889              		.loc 2 204 0
 890 0030 9542     		cmp	r5, r2
 891 0032 9BB2     		uxth	r3, r3
 892 0034 1FD9     		bls	.L84
 893              	.L104:
 894              		.loc 2 204 0 is_stmt 0 discriminator 1
 895 0036 4518     		adds	r5, r0, r1
 896 0038 AD7A     		ldrb	r5, [r5, #10]	@ zero_extendqisi2
 897 003a 9542     		cmp	r5, r2
 898 003c 1BD2     		bcs	.L84
 899              	.LVL91:
 900              		.loc 2 212 0 is_stmt 1
 901 003e B342     		cmp	r3, r6
 902 0040 25D8     		bhi	.L95
 903              		.loc 2 212 0 is_stmt 0 discriminator 1
 904 0042 29B3     		cbz	r1, .L83
 905 0044 03F1FF3C 		add	ip, r3, #-1
 906 0048 8444     		add	ip, ip, r0
 907              	.LVL92:
 908              	.L92:
 909              		.loc 2 218 0 is_stmt 1
 910 004a 1CF8015F 		ldrb	r5, [ip, #1]!	@ zero_extendqisi2
 911 004e 9542     		cmp	r5, r2
 912 0050 9FB2     		uxth	r7, r3
ARM GAS  /var/folders/by/7g7br9lj2xnbkz1cp6hj5p2r0000gn/T//cc7XaEG7.s 			page 17


 913 0052 15D9     		bls	.L87
 914              		.loc 2 218 0 is_stmt 0 discriminator 1
 915 0054 1CF80AEC 		ldrb	lr, [ip, #-10]	@ zero_extendqisi2
 916 0058 9645     		cmp	lr, r2
 917 005a 11D2     		bcs	.L87
 918              	.LVL93:
 919              		.loc 2 237 0 is_stmt 1
 920 005c A7EB010C 		sub	ip, r7, r1
 921 0060 BCF1270F 		cmp	ip, #39
 922 0064 3B46     		mov	r3, r7
 923 0066 1ADC     		bgt	.L103
 924              	.LVL94:
 925              		.loc 2 200 0
 926 0068 B742     		cmp	r7, r6
 927 006a 10D8     		bhi	.L95
 928 006c 3946     		mov	r1, r7
 929 006e 4B1C     		adds	r3, r1, #1
 930              		.loc 2 204 0
 931 0070 9542     		cmp	r5, r2
 932 0072 9BB2     		uxth	r3, r3
 933 0074 DFD8     		bhi	.L104
 934              	.LVL95:
 935              	.L84:
 936              		.loc 2 200 0 discriminator 1
 937 0076 B342     		cmp	r3, r6
 938 0078 09D8     		bhi	.L95
 939 007a C55C     		ldrb	r5, [r0, r3]	@ zero_extendqisi2
 940              	.LVL96:
 941              		.loc 2 200 0 is_stmt 0
 942 007c 1946     		mov	r1, r3
 943 007e D6E7     		b	.L82
 944              	.LVL97:
 945              	.L87:
 946 0080 0137     		adds	r7, r7, #1
 947 0082 BFB2     		uxth	r7, r7
 948              	.LVL98:
 949              		.loc 2 216 0 is_stmt 1
 950 0084 B7F5207F 		cmp	r7, #640
 951 0088 03F10103 		add	r3, r3, #1
 952 008c DDD1     		bne	.L92
 953              	.LVL99:
 954              	.L95:
 955              		.loc 2 250 0
 956 008e 0021     		movs	r1, #0
 957              	.LVL100:
 958              	.L83:
 959              		.loc 2 263 0
 960 0090 019A     		ldr	r2, [sp, #4]
 961 0092 2368     		ldr	r3, [r4]
 962 0094 9A42     		cmp	r2, r3
 963 0096 0846     		mov	r0, r1
 964              	.LVL101:
 965 0098 07D1     		bne	.L105
 966 009a 03B0     		add	sp, sp, #12
 967              		.cfi_remember_state
 968              		.cfi_def_cfa_offset 20
 969              		@ sp needed
ARM GAS  /var/folders/by/7g7br9lj2xnbkz1cp6hj5p2r0000gn/T//cc7XaEG7.s 			page 18


 970 009c F0BD     		pop	{r4, r5, r6, r7, pc}
 971              	.LVL102:
 972              	.L103:
 973              		.cfi_restore_state
 974              		.loc 2 253 0
 975 009e 0B44     		add	r3, r3, r1
 976              	.LVL103:
 977 00a0 054A     		ldr	r2, .L106+8
 978 00a2 5B10     		asrs	r3, r3, #1
 979 00a4 1380     		strh	r3, [r2]	@ movhi
 980              	.LVL104:
 981              		.loc 2 254 0
 982 00a6 0121     		movs	r1, #1
 983 00a8 F2E7     		b	.L83
 984              	.LVL105:
 985              	.L105:
 986              		.loc 2 263 0
 987 00aa FFF7FEFF 		bl	__stack_chk_fail
 988              	.LVL106:
 989              	.L107:
 990 00ae 00BF     		.align	2
 991              	.L106:
 992 00b0 00000000 		.word	__stack_chk_guard
 993 00b4 CDCCCCCC 		.word	-858993459
 994 00b8 00000000 		.word	.LANCHOR4
 995              		.cfi_endproc
 996              	.LFE259:
 997              		.size	extract_line_width, .-extract_line_width
 998              		.section	.text.get_distance_cm,"ax",%progbits
 999              		.align	1
 1000              		.p2align 4,,15
 1001              		.global	get_distance_cm
 1002              		.syntax unified
 1003              		.thumb
 1004              		.thumb_func
 1005              		.fpu fpv4-sp-d16
 1006              		.type	get_distance_cm, %function
 1007              	get_distance_cm:
 1008              	.LFB262:
 1009              		.loc 2 362 0
 1010              		.cfi_startproc
 1011              		@ args = 0, pretend = 0, frame = 8
 1012              		@ frame_needed = 0, uses_anonymous_args = 0
 1013 0000 00B5     		push	{lr}
 1014              		.cfi_def_cfa_offset 4
 1015              		.cfi_offset 14, -4
 1016 0002 074B     		ldr	r3, .L112
 1017 0004 83B0     		sub	sp, sp, #12
 1018              		.cfi_def_cfa_offset 16
 1019              		.loc 2 362 0
 1020 0006 1A68     		ldr	r2, [r3]
 1021 0008 0192     		str	r2, [sp, #4]
 1022              		.loc 2 364 0
 1023 000a 019A     		ldr	r2, [sp, #4]
 1024 000c 1B68     		ldr	r3, [r3]
 1025 000e 9A42     		cmp	r2, r3
 1026 0010 04D1     		bne	.L111
ARM GAS  /var/folders/by/7g7br9lj2xnbkz1cp6hj5p2r0000gn/T//cc7XaEG7.s 			page 19


 1027 0012 9FED040A 		vldr.32	s0, .L112+4
 1028 0016 03B0     		add	sp, sp, #12
 1029              		.cfi_remember_state
 1030              		.cfi_def_cfa_offset 4
 1031              		@ sp needed
 1032 0018 5DF804FB 		ldr	pc, [sp], #4
 1033              	.L111:
 1034              		.cfi_restore_state
 1035 001c FFF7FEFF 		bl	__stack_chk_fail
 1036              	.LVL107:
 1037              	.L113:
 1038              		.align	2
 1039              	.L112:
 1040 0020 00000000 		.word	__stack_chk_guard
 1041 0024 00000000 		.word	0
 1042              		.cfi_endproc
 1043              	.LFE262:
 1044              		.size	get_distance_cm, .-get_distance_cm
 1045              		.section	.text.get_line_position,"ax",%progbits
 1046              		.align	1
 1047              		.p2align 4,,15
 1048              		.global	get_line_position
 1049              		.syntax unified
 1050              		.thumb
 1051              		.thumb_func
 1052              		.fpu fpv4-sp-d16
 1053              		.type	get_line_position, %function
 1054              	get_line_position:
 1055              	.LFB263:
 1056              		.loc 2 366 0
 1057              		.cfi_startproc
 1058              		@ args = 0, pretend = 0, frame = 8
 1059              		@ frame_needed = 0, uses_anonymous_args = 0
 1060 0000 00B5     		push	{lr}
 1061              		.cfi_def_cfa_offset 4
 1062              		.cfi_offset 14, -4
 1063 0002 074B     		ldr	r3, .L118
 1064              		.loc 2 367 0
 1065 0004 0749     		ldr	r1, .L118+4
 1066              		.loc 2 366 0
 1067 0006 1A68     		ldr	r2, [r3]
 1068              		.loc 2 368 0
 1069 0008 0888     		ldrh	r0, [r1]
 1070              		.loc 2 366 0
 1071 000a 83B0     		sub	sp, sp, #12
 1072              		.cfi_def_cfa_offset 16
 1073              		.loc 2 366 0
 1074 000c 0192     		str	r2, [sp, #4]
 1075              		.loc 2 368 0
 1076 000e 019A     		ldr	r2, [sp, #4]
 1077 0010 1B68     		ldr	r3, [r3]
 1078 0012 9A42     		cmp	r2, r3
 1079 0014 02D1     		bne	.L117
 1080 0016 03B0     		add	sp, sp, #12
 1081              		.cfi_remember_state
 1082              		.cfi_def_cfa_offset 4
 1083              		@ sp needed
ARM GAS  /var/folders/by/7g7br9lj2xnbkz1cp6hj5p2r0000gn/T//cc7XaEG7.s 			page 20


 1084 0018 5DF804FB 		ldr	pc, [sp], #4
 1085              	.L117:
 1086              		.cfi_restore_state
 1087 001c FFF7FEFF 		bl	__stack_chk_fail
 1088              	.LVL108:
 1089              	.L119:
 1090              		.align	2
 1091              	.L118:
 1092 0020 00000000 		.word	__stack_chk_guard
 1093 0024 00000000 		.word	.LANCHOR4
 1094              		.cfi_endproc
 1095              	.LFE263:
 1096              		.size	get_line_position, .-get_line_position
 1097              		.section	.text.process_image_start,"ax",%progbits
 1098              		.align	1
 1099              		.p2align 4,,15
 1100              		.global	process_image_start
 1101              		.syntax unified
 1102              		.thumb
 1103              		.thumb_func
 1104              		.fpu fpv4-sp-d16
 1105              		.type	process_image_start, %function
 1106              	process_image_start:
 1107              	.LFB264:
 1108              		.loc 2 370 0
 1109              		.cfi_startproc
 1110              		@ args = 0, pretend = 0, frame = 8
 1111              		@ frame_needed = 0, uses_anonymous_args = 0
 1112 0000 30B5     		push	{r4, r5, lr}
 1113              		.cfi_def_cfa_offset 12
 1114              		.cfi_offset 4, -12
 1115              		.cfi_offset 5, -8
 1116              		.cfi_offset 14, -4
 1117 0002 0E4C     		ldr	r4, .L124
 1118              		.loc 2 371 0
 1119 0004 0E4B     		ldr	r3, .L124+4
 1120              		.loc 2 370 0
 1121 0006 2268     		ldr	r2, [r4]
 1122              		.loc 2 371 0
 1123 0008 0E48     		ldr	r0, .L124+8
 1124              		.loc 2 370 0
 1125 000a 85B0     		sub	sp, sp, #20
 1126              		.cfi_def_cfa_offset 32
 1127              		.loc 2 371 0
 1128 000c 0025     		movs	r5, #0
 1129              		.loc 2 370 0
 1130 000e 0392     		str	r2, [sp, #12]
 1131              		.loc 2 371 0
 1132 0010 41F27811 		movw	r1, #4472
 1133 0014 4022     		movs	r2, #64
 1134 0016 0095     		str	r5, [sp]
 1135 0018 FFF7FEFF 		bl	chThdCreateStatic
 1136              	.LVL109:
 1137              		.loc 2 372 0
 1138 001c 0A4B     		ldr	r3, .L124+12
 1139 001e 0095     		str	r5, [sp]
 1140 0020 4022     		movs	r2, #64
ARM GAS  /var/folders/by/7g7br9lj2xnbkz1cp6hj5p2r0000gn/T//cc7XaEG7.s 			page 21


 1141 0022 0A48     		ldr	r0, .L124+16
 1142 0024 4FF41E71 		mov	r1, #632
 1143 0028 FFF7FEFF 		bl	chThdCreateStatic
 1144              	.LVL110:
 1145              		.loc 2 373 0
 1146 002c 039A     		ldr	r2, [sp, #12]
 1147 002e 2368     		ldr	r3, [r4]
 1148 0030 9A42     		cmp	r2, r3
 1149 0032 01D1     		bne	.L123
 1150 0034 05B0     		add	sp, sp, #20
 1151              		.cfi_remember_state
 1152              		.cfi_def_cfa_offset 12
 1153              		@ sp needed
 1154 0036 30BD     		pop	{r4, r5, pc}
 1155              	.L123:
 1156              		.cfi_restore_state
 1157 0038 FFF7FEFF 		bl	__stack_chk_fail
 1158              	.LVL111:
 1159              	.L125:
 1160              		.align	2
 1161              	.L124:
 1162 003c 00000000 		.word	__stack_chk_guard
 1163 0040 00000000 		.word	ProcessImage
 1164 0044 00000000 		.word	waProcessImage
 1165 0048 00000000 		.word	CaptureImage
 1166 004c 00000000 		.word	.LANCHOR5
 1167              		.cfi_endproc
 1168              	.LFE264:
 1169              		.size	process_image_start, .-process_image_start
 1170              		.section	.bss.waCaptureImage,"aw",%nobits
 1171              		.align	3
 1172              		.set	.LANCHOR5,. + 0
 1173              		.type	waCaptureImage, %object
 1174              		.size	waCaptureImage, 632
 1175              	waCaptureImage:
 1176 0000 00000000 		.space	632
 1176      00000000 
 1176      00000000 
 1176      00000000 
 1176      00000000 
 1177              		.section	.bss.waProcessImage,"aw",%nobits
 1178              		.align	3
 1179              		.type	waProcessImage, %object
 1180              		.size	waProcessImage, 4472
 1181              	waProcessImage:
 1182 0000 00000000 		.space	4472
 1182      00000000 
 1182      00000000 
 1182      00000000 
 1182      00000000 
 1183              		.section	.data.image_ready_sem,"aw",%progbits
 1184              		.align	2
 1185              		.set	.LANCHOR1,. + 0
 1186              		.type	image_ready_sem, %object
 1187              		.size	image_ready_sem, 12
 1188              	image_ready_sem:
 1189 0000 00000000 		.word	image_ready_sem
ARM GAS  /var/folders/by/7g7br9lj2xnbkz1cp6hj5p2r0000gn/T//cc7XaEG7.s 			page 22


 1190 0004 00000000 		.word	image_ready_sem
 1191 0008 00000000 		.word	0
 1192              		.section	.data.line_position,"aw",%progbits
 1193              		.align	1
 1194              		.set	.LANCHOR4,. + 0
 1195              		.type	line_position, %object
 1196              		.size	line_position, 2
 1197              	line_position:
 1198 0000 4001     		.short	320
 1199              		.section	.rodata.__FUNCTION__.11440,"a",%progbits
 1200              		.align	2
 1201              		.set	.LANCHOR0,. + 0
 1202              		.type	__FUNCTION__.11440, %object
 1203              		.size	__FUNCTION__.11440, 13
 1204              	__FUNCTION__.11440:
 1205 0000 43617074 		.ascii	"CaptureImage\000"
 1205      75726549 
 1205      6D616765 
 1205      00
 1206              		.section	.rodata.__FUNCTION__.11446,"a",%progbits
 1207              		.align	2
 1208              		.set	.LANCHOR3,. + 0
 1209              		.type	__FUNCTION__.11446, %object
 1210              		.size	__FUNCTION__.11446, 13
 1211              	__FUNCTION__.11446:
 1212 0000 50726F63 		.ascii	"ProcessImage\000"
 1212      65737349 
 1212      6D616765 
 1212      00
 1213              		.section	.rodata.__func__.7153,"a",%progbits
 1214              		.align	2
 1215              		.set	.LANCHOR2,. + 0
 1216              		.type	__func__.7153, %object
 1217              		.size	__func__.7153, 12
 1218              	__func__.7153:
 1219 0000 63685379 		.ascii	"chSysUnlock\000"
 1219      73556E6C 
 1219      6F636B00 
 1220              		.section	.rodata.chprintf.constprop.0.str1.4,"aMS",%progbits,1
 1221              		.align	2
 1222              	.LC0:
 1223 0000 523D2533 		.ascii	"R=%3d, G=%3d, B=%3d\015\012\012\000"
 1223      642C2047 
 1223      3D253364 
 1223      2C20423D 
 1223      2533640D 
 1224              		.text
 1225              	.Letext0:
 1226              		.file 7 "/Applications/Eclipse_e-puck2.app/Contents/Eclipse_e-puck2/Tools/gcc-arm-none-eabi-7-2017
 1227              		.file 8 "/Applications/Eclipse_e-puck2.app/Contents/Eclipse_e-puck2/Tools/gcc-arm-none-eabi-7-2017
 1228              		.file 9 "/Applications/Eclipse_e-puck2.app/Contents/Eclipse_e-puck2/Tools/gcc-arm-none-eabi-7-2017
 1229              		.file 10 "../../lib/e-puck2_main-processor/ChibiOS//os/rt/ports/ARMCMx/compilers/GCC/chtypes.h"
 1230              		.file 11 "../../lib/e-puck2_main-processor/ChibiOS//os/rt/include/chsystypes.h"
 1231              		.file 12 "../../lib/e-puck2_main-processor/ChibiOS//os/rt/include/chschd.h"
 1232              		.file 13 "../../lib/e-puck2_main-processor/ChibiOS//os/ext/CMSIS/include/core_cm4.h"
 1233              		.file 14 "../../lib/e-puck2_main-processor/ChibiOS//os/ext/CMSIS/ST/system_stm32f4xx.h"
 1234              		.file 15 "../../lib/e-puck2_main-processor/ChibiOS//os/ext/CMSIS/ST/stm32f407xx.h"
ARM GAS  /var/folders/by/7g7br9lj2xnbkz1cp6hj5p2r0000gn/T//cc7XaEG7.s 			page 23


 1235              		.file 16 "../../lib/e-puck2_main-processor/ChibiOS//os/rt/ports/ARMCMx/chcore.h"
 1236              		.file 17 "../../lib/e-puck2_main-processor/ChibiOS//os/rt/ports/ARMCMx/chcore_v7m.h"
 1237              		.file 18 "../../lib/e-puck2_main-processor/ChibiOS//os/rt/include/chdebug.h"
 1238              		.file 19 "../../lib/e-puck2_main-processor/ChibiOS//os/rt/include/chtm.h"
 1239              		.file 20 "../../lib/e-puck2_main-processor/ChibiOS//os/rt/include/chstats.h"
 1240              		.file 21 "../../lib/e-puck2_main-processor/ChibiOS//os/rt/include/chsem.h"
 1241              		.file 22 "../../lib/e-puck2_main-processor/ChibiOS//os/rt/include/chmtx.h"
 1242              		.file 23 "../../lib/e-puck2_main-processor/ChibiOS//os/rt/include/chevents.h"
 1243              		.file 24 "../../lib/e-puck2_main-processor/ChibiOS//os/rt/include/chqueues.h"
 1244              		.file 25 "../../lib/e-puck2_main-processor/ChibiOS//os/rt/include/chstreams.h"
 1245              		.file 26 "../../lib/e-puck2_main-processor/ChibiOS//os/hal/ports/STM32/STM32F4xx/stm32_dma.h"
 1246              		.file 27 "../../lib/e-puck2_main-processor/ChibiOS//os/hal/include/hal_ioblock.h"
 1247              		.file 28 "../../lib/e-puck2_main-processor/ChibiOS//os/hal/ports/STM32/LLD/GPIOv2/pal_lld.h"
 1248              		.file 29 "../../lib/e-puck2_main-processor/ChibiOS//os/hal/include/adc.h"
 1249              		.file 30 "../../lib/e-puck2_main-processor/ChibiOS//os/hal/ports/STM32/STM32F4xx/adc_lld.h"
 1250              		.file 31 "../../lib/e-puck2_main-processor/ChibiOS//os/hal/include/can.h"
 1251              		.file 32 "../../lib/e-puck2_main-processor/ChibiOS//os/hal/ports/STM32/LLD/can_lld.h"
 1252              		.file 33 "../../lib/e-puck2_main-processor/ChibiOS//os/hal/include/dac.h"
 1253              		.file 34 "../../lib/e-puck2_main-processor/ChibiOS//os/hal/ports/STM32/LLD/DACv1/dac_lld.h"
 1254              		.file 35 "../../lib/e-puck2_main-processor/ChibiOS//os/hal/include/ext.h"
 1255              		.file 36 "../../lib/e-puck2_main-processor/ChibiOS//os/hal/ports/STM32/LLD/ext_lld.h"
 1256              		.file 37 "../../lib/e-puck2_main-processor/ChibiOS//os/hal/include/gpt.h"
 1257              		.file 38 "../../lib/e-puck2_main-processor/ChibiOS//os/hal/ports/STM32/LLD/TIMv1/gpt_lld.h"
 1258              		.file 39 "../../lib/e-puck2_main-processor/ChibiOS//os/hal/ports/STM32/LLD/TIMv1/stm32_tim.h"
 1259              		.file 40 "../../lib/e-puck2_main-processor/ChibiOS//os/hal/include/i2c.h"
 1260              		.file 41 "../../lib/e-puck2_main-processor/ChibiOS//os/hal/ports/STM32/LLD/I2Cv1/i2c_lld.h"
 1261              		.file 42 "../../lib/e-puck2_main-processor/ChibiOS//os/hal/include/i2s.h"
 1262              		.file 43 "../../lib/e-puck2_main-processor/ChibiOS//os/hal/ports/STM32/LLD/SPIv1/i2s_lld.h"
 1263              		.file 44 "../../lib/e-puck2_main-processor/ChibiOS//os/hal/include/pwm.h"
 1264              		.file 45 "../../lib/e-puck2_main-processor/ChibiOS//os/hal/ports/STM32/LLD/TIMv1/pwm_lld.h"
 1265              		.file 46 "../../lib/e-puck2_main-processor/ChibiOS//os/hal/include/serial.h"
 1266              		.file 47 "../../lib/e-puck2_main-processor/ChibiOS//os/hal/ports/STM32/LLD/USARTv1/serial_lld.h"
 1267              		.file 48 "../../lib/e-puck2_main-processor/ChibiOS//os/hal/include/sdc.h"
 1268              		.file 49 "../../lib/e-puck2_main-processor/ChibiOS//os/hal/ports/STM32/LLD/sdc_lld.h"
 1269              		.file 50 "../../lib/e-puck2_main-processor/ChibiOS//os/hal/include/spi.h"
 1270              		.file 51 "../../lib/e-puck2_main-processor/ChibiOS//os/hal/ports/STM32/LLD/SPIv1/spi_lld.h"
 1271              		.file 52 "../../lib/e-puck2_main-processor/ChibiOS//os/hal/include/usb.h"
 1272              		.file 53 "../../lib/e-puck2_main-processor/ChibiOS//os/hal/ports/STM32/LLD/OTGv1/usb_lld.h"
 1273              		.file 54 "../../lib/e-puck2_main-processor/ChibiOS//os/hal/ports/STM32/LLD/OTGv1/stm32_otg.h"
 1274              		.file 55 "../../lib/e-puck2_main-processor/ChibiOS//os/hal/include/serial_usb.h"
 1275              		.file 56 "/Applications/Eclipse_e-puck2.app/Contents/Eclipse_e-puck2/Tools/gcc-arm-none-eabi-7-201
 1276              		.file 57 "<built-in>"
 1277              		.file 58 "../../lib/e-puck2_main-processor/src/usbcfg.h"
 1278              		.file 59 "../../lib/e-puck2_main-processor/ChibiOS_ext/os/hal/include/../ports/STM32/STM32F4xx/dcm
 1279              		.file 60 "../../lib/e-puck2_main-processor/src/camera/po8030.h"
 1280              		.file 61 "../../lib/e-puck2_main-processor/src/camera/dcmi_camera.h"
 1281              		.file 62 "/Applications/Eclipse_e-puck2.app/Contents/Eclipse_e-puck2/Tools/gcc-arm-none-eabi-7-201
 1282              		.file 63 "/Applications/Eclipse_e-puck2.app/Contents/Eclipse_e-puck2/Tools/gcc-arm-none-eabi-7-201
 1283              		.file 64 "/Applications/Eclipse_e-puck2.app/Contents/Eclipse_e-puck2/Tools/gcc-arm-none-eabi-7-201
 1284              		.file 65 "../../lib/e-puck2_main-processor/src/msgbus/messagebus.h"
 1285              		.file 66 "/Applications/Eclipse_e-puck2.app/Contents/Eclipse_e-puck2/Tools/gcc-arm-none-eabi-7-201
 1286              		.file 67 "/Applications/Eclipse_e-puck2.app/Contents/Eclipse_e-puck2/Tools/gcc-arm-none-eabi-7-201
 1287              		.file 68 "../../lib/e-puck2_main-processor/src/parameter/parameter.h"
 1288              		.file 69 "./main.h"
 1289              		.file 70 "../../lib/e-puck2_main-processor/src/leds.h"
 1290              		.file 71 "../../lib/e-puck2_main-processor/ChibiOS//os/rt/include/chthreads.h"