ARM GAS  /var/folders/by/7g7br9lj2xnbkz1cp6hj5p2r0000gn/T//ccDxEYjT.s 			page 1


   1              		.cpu cortex-m4
   2              		.eabi_attribute 27, 1
   3              		.eabi_attribute 28, 1
   4              		.eabi_attribute 20, 1
   5              		.eabi_attribute 21, 1
   6              		.eabi_attribute 23, 3
   7              		.eabi_attribute 24, 1
   8              		.eabi_attribute 25, 1
   9              		.eabi_attribute 26, 1
  10              		.eabi_attribute 30, 2
  11              		.eabi_attribute 34, 1
  12              		.eabi_attribute 18, 4
  13              		.file	"process_image_K.c"
  14              		.text
  15              	.Ltext0:
  16              		.cfi_sections	.debug_frame
  17              		.section	.text.chprintf.constprop.0,"ax",%progbits
  18              		.align	1
  19              		.p2align 4,,15
  20              		.syntax unified
  21              		.thumb
  22              		.thumb_func
  23              		.fpu fpv4-sp-d16
  24              		.type	chprintf.constprop.0, %function
  25              	chprintf.constprop.0:
  26              	.LFB261:
  27              		.file 1 "../../lib/e-puck2_main-processor/ChibiOS//os/hal/lib/streams/chprintf.h"
  28              		.loc 1 69 0
  29              		.cfi_startproc
  30              		@ args = 4, pretend = 12, frame = 8
  31              		@ frame_needed = 0, uses_anonymous_args = 1
  32              	.LVL0:
  33 0000 0EB4     		push	{r1, r2, r3}
  34              		.cfi_def_cfa_offset 12
  35              		.cfi_offset 1, -12
  36              		.cfi_offset 2, -8
  37              		.cfi_offset 3, -4
  38 0002 10B5     		push	{r4, lr}
  39              		.cfi_def_cfa_offset 20
  40              		.cfi_offset 4, -20
  41              		.cfi_offset 14, -16
  42 0004 83B0     		sub	sp, sp, #12
  43              		.cfi_def_cfa_offset 32
  44              		.loc 1 69 0
  45 0006 05AA     		add	r2, sp, #20
  46 0008 094C     		ldr	r4, .L6
  47 000a 52F8041B 		ldr	r1, [r2], #4
  48 000e 2368     		ldr	r3, [r4]
  49              		.loc 1 74 0
  50 0010 0848     		ldr	r0, .L6+4
  51              	.LVL1:
  52              		.loc 1 73 0
  53 0012 0092     		str	r2, [sp]
  54              		.loc 1 69 0
  55 0014 0193     		str	r3, [sp, #4]
  56              	.LVL2:
  57              		.loc 1 74 0
ARM GAS  /var/folders/by/7g7br9lj2xnbkz1cp6hj5p2r0000gn/T//ccDxEYjT.s 			page 2


  58 0016 FFF7FEFF 		bl	chvprintf
  59              	.LVL3:
  60              		.loc 1 78 0
  61 001a 019A     		ldr	r2, [sp, #4]
  62 001c 2368     		ldr	r3, [r4]
  63 001e 9A42     		cmp	r2, r3
  64 0020 04D1     		bne	.L5
  65 0022 03B0     		add	sp, sp, #12
  66              		.cfi_remember_state
  67              		.cfi_def_cfa_offset 20
  68              		@ sp needed
  69 0024 BDE81040 		pop	{r4, lr}
  70              		.cfi_restore 14
  71              		.cfi_restore 4
  72              		.cfi_def_cfa_offset 12
  73 0028 03B0     		add	sp, sp, #12
  74              		.cfi_restore 3
  75              		.cfi_restore 2
  76              		.cfi_restore 1
  77              		.cfi_def_cfa_offset 0
  78 002a 7047     		bx	lr
  79              	.L5:
  80              		.cfi_restore_state
  81 002c FFF7FEFF 		bl	__stack_chk_fail
  82              	.LVL4:
  83              	.L7:
  84              		.align	2
  85              	.L6:
  86 0030 00000000 		.word	__stack_chk_guard
  87 0034 00000000 		.word	SDU1
  88              		.cfi_endproc
  89              	.LFE261:
  90              		.size	chprintf.constprop.0, .-chprintf.constprop.0
  91              		.section	.text.ProcessImage,"ax",%progbits
  92              		.align	1
  93              		.p2align 4,,15
  94              		.syntax unified
  95              		.thumb
  96              		.thumb_func
  97              		.fpu fpv4-sp-d16
  98              		.type	ProcessImage, %function
  99              	ProcessImage:
 100              	.LFB258:
 101              		.file 2 "process_image_K.c"
 102              		.loc 2 40 0
 103              		.cfi_startproc
 104              		@ args = 0, pretend = 0, frame = 8
 105              		@ frame_needed = 0, uses_anonymous_args = 0
 106              	.LVL5:
 107 0000 F0B5     		push	{r4, r5, r6, r7, lr}
 108              		.cfi_def_cfa_offset 20
 109              		.cfi_offset 4, -20
 110              		.cfi_offset 5, -16
 111              		.cfi_offset 6, -12
 112              		.cfi_offset 7, -8
 113              		.cfi_offset 14, -4
 114              	.LBB36:
ARM GAS  /var/folders/by/7g7br9lj2xnbkz1cp6hj5p2r0000gn/T//ccDxEYjT.s 			page 3


 115              	.LBB37:
 116              		.file 3 "../../lib/e-puck2_main-processor/ChibiOS//os/rt/include/chregistry.h"
 117              		.loc 3 135 0
 118 0002 234A     		ldr	r2, .L14
 119              	.LBE37:
 120              	.LBE36:
 121              		.loc 2 40 0
 122 0004 234B     		ldr	r3, .L14+4
 123              	.LBB40:
 124              	.LBB38:
 125              		.loc 3 135 0
 126 0006 9269     		ldr	r2, [r2, #24]
 127 0008 2349     		ldr	r1, .L14+8
 128              	.LBE38:
 129              	.LBE40:
 130              		.loc 2 40 0
 131 000a 1B68     		ldr	r3, [r3]
 132              	.LBB41:
 133              		.loc 2 68 0
 134 000c 234C     		ldr	r4, .L14+12
 135              	.LBE41:
 136              	.LBB46:
 137              	.LBB39:
 138              		.loc 3 135 0
 139 000e 9161     		str	r1, [r2, #24]
 140              	.LBE39:
 141              	.LBE46:
 142              		.loc 2 40 0
 143 0010 85B0     		sub	sp, sp, #20
 144              		.cfi_def_cfa_offset 40
 145              		.loc 2 40 0
 146 0012 0393     		str	r3, [sp, #12]
 147              	.LVL6:
 148              	.L10:
 149              	.LBB47:
 150              	.LBB42:
 151              	.LBB43:
 152              		.file 4 "../../lib/e-puck2_main-processor/ChibiOS//os/rt/include/chbsem.h"
 153              		.loc 4 143 0
 154 0014 2248     		ldr	r0, .L14+16
 155 0016 FFF7FEFF 		bl	chSemWait
 156              	.LVL7:
 157              	.LBE43:
 158              	.LBE42:
 159              		.loc 2 51 0
 160 001a FFF7FEFF 		bl	dcmi_get_last_image_ptr
 161              	.LVL8:
 162              	.LBB44:
 163              		.loc 2 55 0
 164 001e 0021     		movs	r1, #0
 165              	.LBE44:
 166              		.loc 2 53 0
 167 0020 0D46     		mov	r5, r1
 168 0022 0F46     		mov	r7, r1
 169 0024 0E46     		mov	r6, r1
 170              	.LVL9:
 171              	.L9:
ARM GAS  /var/folders/by/7g7br9lj2xnbkz1cp6hj5p2r0000gn/T//ccDxEYjT.s 			page 4


 172              	.LBB45:
 173              		.loc 2 57 0 discriminator 3
 174 0026 4B08     		lsrs	r3, r1, #1
 175              		.loc 2 58 0 discriminator 3
 176 0028 C218     		adds	r2, r0, r3
 177              		.loc 2 57 0 discriminator 3
 178 002a 10F803C0 		ldrb	ip, [r0, r3]	@ zero_extendqisi2
 179              		.loc 2 58 0 discriminator 3
 180 002e 5378     		ldrb	r3, [r2, #1]	@ zero_extendqisi2
 181 0030 4FEA4C12 		lsl	r2, ip, #5
 182 0034 4FEAE30E 		asr	lr, r3, #3
 183 0038 0EF01C0E 		and	lr, lr, #28
 184              		.loc 2 59 0 discriminator 3
 185 003c DB00     		lsls	r3, r3, #3
 186              		.loc 2 58 0 discriminator 3
 187 003e D2B2     		uxtb	r2, r2
 188              		.loc 2 55 0 discriminator 3
 189 0040 0431     		adds	r1, r1, #4
 190              	.LVL10:
 191              		.loc 2 59 0 discriminator 3
 192 0042 DBB2     		uxtb	r3, r3
 193              		.loc 2 58 0 discriminator 3
 194 0044 42EA0E02 		orr	r2, r2, lr
 195              		.loc 2 57 0 discriminator 3
 196 0048 0CF0F80C 		and	ip, ip, #248
 197              		.loc 2 55 0 discriminator 3
 198 004c 89B2     		uxth	r1, r1
 199              		.loc 2 59 0 discriminator 3
 200 004e 2B44     		add	r3, r3, r5
 201              		.loc 2 58 0 discriminator 3
 202 0050 3A44     		add	r2, r2, r7
 203              		.loc 2 57 0 discriminator 3
 204 0052 6644     		add	r6, r6, ip
 205              	.LVL11:
 206              		.loc 2 55 0 discriminator 3
 207 0054 B1F5A06F 		cmp	r1, #1280
 208              		.loc 2 59 0 discriminator 3
 209 0058 9DB2     		uxth	r5, r3
 210              	.LVL12:
 211              		.loc 2 58 0 discriminator 3
 212 005a 97B2     		uxth	r7, r2
 213              	.LVL13:
 214              		.loc 2 57 0 discriminator 3
 215 005c B6B2     		uxth	r6, r6
 216              	.LVL14:
 217              		.loc 2 55 0 discriminator 3
 218 005e E2D1     		bne	.L9
 219              	.LVL15:
 220              	.LBE45:
 221              		.loc 2 68 0
 222 0060 1049     		ldr	r1, .L14+20
 223              	.LVL16:
 224 0062 2046     		mov	r0, r4
 225              	.LVL17:
 226 0064 FFF7FEFF 		bl	chprintf.constprop.0
 227              	.LVL18:
 228              		.loc 2 63 0
ARM GAS  /var/folders/by/7g7br9lj2xnbkz1cp6hj5p2r0000gn/T//ccDxEYjT.s 			page 5


 229 0068 0F4A     		ldr	r2, .L14+24
 230              		.loc 2 69 0
 231 006a 1049     		ldr	r1, .L14+28
 232              		.loc 2 64 0
 233 006c A2FB0503 		umull	r0, r3, r2, r5
 234              		.loc 2 66 0
 235 0070 C3F30F20 		ubfx	r0, r3, #8, #16
 236              		.loc 2 63 0
 237 0074 A2FB0753 		umull	r5, r3, r2, r7
 238              	.LVL19:
 239              		.loc 2 62 0
 240 0078 A2FB0652 		umull	r5, r2, r2, r6
 241              		.loc 2 66 0
 242 007c 0090     		str	r0, [sp]
 243              		.loc 2 69 0
 244 007e C3F30F23 		ubfx	r3, r3, #8, #16
 245 0082 C2F30F22 		ubfx	r2, r2, #8, #16
 246 0086 2046     		mov	r0, r4
 247 0088 FFF7FEFF 		bl	chprintf.constprop.0
 248              	.LVL20:
 249              	.LBE47:
 250              		.loc 2 47 0
 251 008c C2E7     		b	.L10
 252              	.L15:
 253 008e 00BF     		.align	2
 254              	.L14:
 255 0090 00000000 		.word	ch
 256 0094 00000000 		.word	__stack_chk_guard
 257 0098 00000000 		.word	.LANCHOR0
 258 009c 00000000 		.word	SDU1
 259 00a0 00000000 		.word	.LANCHOR1
 260 00a4 00000000 		.word	.LC0
 261 00a8 CDCCCCCC 		.word	-858993459
 262 00ac 0C000000 		.word	.LC1
 263              		.cfi_endproc
 264              	.LFE258:
 265              		.size	ProcessImage, .-ProcessImage
 266              		.section	.text.CaptureImage,"ax",%progbits
 267              		.align	1
 268              		.p2align 4,,15
 269              		.syntax unified
 270              		.thumb
 271              		.thumb_func
 272              		.fpu fpv4-sp-d16
 273              		.type	CaptureImage, %function
 274              	CaptureImage:
 275              	.LFB257:
 276              		.loc 2 17 0
 277              		.cfi_startproc
 278              		@ Volatile: function does not return.
 279              		@ args = 0, pretend = 0, frame = 8
 280              		@ frame_needed = 0, uses_anonymous_args = 0
 281              	.LVL21:
 282 0000 80B5     		push	{r7, lr}
 283              		.cfi_def_cfa_offset 8
 284              		.cfi_offset 7, -8
 285              		.cfi_offset 14, -4
ARM GAS  /var/folders/by/7g7br9lj2xnbkz1cp6hj5p2r0000gn/T//ccDxEYjT.s 			page 6


 286              	.LBB64:
 287              	.LBB65:
 288              		.loc 3 135 0
 289 0002 234C     		ldr	r4, .L22
 290              	.LBE65:
 291              	.LBE64:
 292              		.loc 2 17 0
 293 0004 234A     		ldr	r2, .L22+4
 294              	.LBB68:
 295              	.LBB66:
 296              		.loc 3 135 0
 297 0006 A369     		ldr	r3, [r4, #24]
 298 0008 2349     		ldr	r1, .L22+8
 299              	.LBE66:
 300              	.LBE68:
 301              		.loc 2 17 0
 302 000a 1668     		ldr	r6, [r2]
 303              	.LBB69:
 304              	.LBB67:
 305              		.loc 3 135 0
 306 000c 9961     		str	r1, [r3, #24]
 307              	.LBE67:
 308              	.LBE69:
 309              		.loc 2 17 0
 310 000e 86B0     		sub	sp, sp, #24
 311              		.cfi_def_cfa_offset 32
 312              		.loc 2 23 0
 313 0010 0223     		movs	r3, #2
 314 0012 2025     		movs	r5, #32
 315 0014 0A22     		movs	r2, #10
 316 0016 0021     		movs	r1, #0
 317 0018 0093     		str	r3, [sp]
 318              		.loc 2 17 0
 319 001a 0596     		str	r6, [sp, #20]
 320              		.loc 2 23 0
 321 001c 4FF42073 		mov	r3, #640
 322 0020 CDE90155 		strd	r5, r5, [sp, #4]
 323 0024 3020     		movs	r0, #48
 324              	.LVL22:
 325 0026 1D4E     		ldr	r6, .L22+12
 326              	.LBB70:
 327              	.LBB71:
 328              	.LBB72:
 329              	.LBB73:
 330              		.file 5 "../../lib/e-puck2_main-processor/ChibiOS//os/rt/include/chsys.h"
 331              		.loc 5 367 0
 332 0028 1D4F     		ldr	r7, .L22+16
 333              	.LBE73:
 334              	.LBE72:
 335              	.LBE71:
 336              	.LBE70:
 337              		.loc 2 23 0
 338 002a FFF7FEFF 		bl	po8030_advanced_config
 339              	.LVL23:
 340              		.loc 2 24 0
 341 002e FFF7FEFF 		bl	dcmi_enable_double_buffering
 342              	.LVL24:
ARM GAS  /var/folders/by/7g7br9lj2xnbkz1cp6hj5p2r0000gn/T//ccDxEYjT.s 			page 7


 343              		.loc 2 25 0
 344 0032 0020     		movs	r0, #0
 345 0034 FFF7FEFF 		bl	dcmi_set_capture_mode
 346              	.LVL25:
 347              	.LBB91:
 348              	.LBB88:
 349              	.LBB78:
 350              	.LBB79:
 351              		.loc 4 271 0
 352 0038 B046     		mov	r8, r6
 353              	.LBE79:
 354              	.LBE78:
 355              	.LBE88:
 356              	.LBE91:
 357              		.loc 2 26 0
 358 003a FFF7FEFF 		bl	dcmi_prepare
 359              	.LVL26:
 360 003e 13E0     		b	.L19
 361              	.LVL27:
 362              	.L17:
 363              	.LBB92:
 364              	.LBB89:
 365              		.loc 4 286 0
 366 0040 FFF7FEFF 		bl	chSchRescheduleS
 367              	.LVL28:
 368              	.LBB81:
 369              	.LBB77:
 370              		.loc 5 360 0
 371 0044 FFF7FEFF 		bl	_dbg_check_unlock
 372              	.LVL29:
 373              		.loc 5 361 0
 374 0048 FFF7FEFF 		bl	_stats_stop_measure_crit_thd
 375              	.LVL30:
 376              		.loc 5 367 0
 377 004c 2368     		ldr	r3, [r4]
 378 004e A342     		cmp	r3, r4
 379 0050 07D0     		beq	.L18
 380 0052 A269     		ldr	r2, [r4, #24]
 381 0054 9B68     		ldr	r3, [r3, #8]
 382 0056 9268     		ldr	r2, [r2, #8]
 383 0058 9A42     		cmp	r2, r3
 384 005a 02D2     		bcs	.L18
 385 005c 3846     		mov	r0, r7
 386 005e FFF7FEFF 		bl	chSysHalt
 387              	.LVL31:
 388              	.L18:
 389              	.LBB74:
 390              	.LBB75:
 391              	.LBB76:
 392              		.file 6 "../../lib/e-puck2_main-processor/ChibiOS//os/ext/CMSIS/include/core_cmFunc.h"
 393              		.loc 6 546 0
 394 0062 0023     		movs	r3, #0
 395              		.syntax unified
 396              	@ 546 "../../lib/e-puck2_main-processor/ChibiOS//os/ext/CMSIS/include/core_cmFunc.h" 1
 397 0064 83F31188 		MSR basepri, r3
 398              	@ 0 "" 2
 399              	.LVL32:
ARM GAS  /var/folders/by/7g7br9lj2xnbkz1cp6hj5p2r0000gn/T//ccDxEYjT.s 			page 8


 400              		.thumb
 401              		.syntax unified
 402              	.L19:
 403              	.LBE76:
 404              	.LBE75:
 405              	.LBE74:
 406              	.LBE77:
 407              	.LBE81:
 408              	.LBE89:
 409              	.LBE92:
 410              		.loc 2 30 0 discriminator 1
 411 0068 FFF7FEFF 		bl	dcmi_capture_start
 412              	.LVL33:
 413              		.loc 2 32 0 discriminator 1
 414 006c FFF7FEFF 		bl	wait_image_ready
 415              	.LVL34:
 416              	.LBB93:
 417              	.LBB90:
 418              	.LBB82:
 419              	.LBB83:
 420              	.LBB84:
 421              	.LBB85:
 422              	.LBB86:
 423              		.loc 6 546 0 discriminator 1
 424              		.syntax unified
 425              	@ 546 "../../lib/e-puck2_main-processor/ChibiOS//os/ext/CMSIS/include/core_cmFunc.h" 1
 426 0070 85F31188 		MSR basepri, r5
 427              	@ 0 "" 2
 428              	.LVL35:
 429              		.thumb
 430              		.syntax unified
 431              	.LBE86:
 432              	.LBE85:
 433              	.LBE84:
 434              		.loc 5 349 0 discriminator 1
 435 0074 FFF7FEFF 		bl	_stats_start_measure_crit_thd
 436              	.LVL36:
 437              		.loc 5 350 0 discriminator 1
 438 0078 FFF7FEFF 		bl	_dbg_check_lock
 439              	.LVL37:
 440              	.LBE83:
 441              	.LBE82:
 442              	.LBB87:
 443              	.LBB80:
 444              		.loc 4 268 0 discriminator 1
 445 007c FFF7FEFF 		bl	chDbgCheckClassI
 446              	.LVL38:
 447              		.loc 4 270 0 discriminator 1
 448 0080 B368     		ldr	r3, [r6, #8]
 449 0082 002B     		cmp	r3, #0
 450 0084 DCDC     		bgt	.L17
 451              		.loc 4 271 0
 452 0086 4046     		mov	r0, r8
 453 0088 FFF7FEFF 		bl	chSemSignalI
 454              	.LVL39:
 455 008c D8E7     		b	.L17
 456              	.L23:
ARM GAS  /var/folders/by/7g7br9lj2xnbkz1cp6hj5p2r0000gn/T//ccDxEYjT.s 			page 9


 457 008e 00BF     		.align	2
 458              	.L22:
 459 0090 00000000 		.word	ch
 460 0094 00000000 		.word	__stack_chk_guard
 461 0098 00000000 		.word	.LANCHOR2
 462 009c 00000000 		.word	.LANCHOR1
 463 00a0 00000000 		.word	.LANCHOR3
 464              	.LBE80:
 465              	.LBE87:
 466              	.LBE90:
 467              	.LBE93:
 468              		.cfi_endproc
 469              	.LFE257:
 470              		.size	CaptureImage, .-CaptureImage
 471              		.section	.text.process_image_start,"ax",%progbits
 472              		.align	1
 473              		.p2align 4,,15
 474              		.global	process_image_start
 475              		.syntax unified
 476              		.thumb
 477              		.thumb_func
 478              		.fpu fpv4-sp-d16
 479              		.type	process_image_start, %function
 480              	process_image_start:
 481              	.LFB259:
 482              		.loc 2 74 0
 483              		.cfi_startproc
 484              		@ args = 0, pretend = 0, frame = 8
 485              		@ frame_needed = 0, uses_anonymous_args = 0
 486 0000 30B5     		push	{r4, r5, lr}
 487              		.cfi_def_cfa_offset 12
 488              		.cfi_offset 4, -12
 489              		.cfi_offset 5, -8
 490              		.cfi_offset 14, -4
 491 0002 0E4C     		ldr	r4, .L28
 492              		.loc 2 75 0
 493 0004 0E4B     		ldr	r3, .L28+4
 494              		.loc 2 74 0
 495 0006 2268     		ldr	r2, [r4]
 496              		.loc 2 75 0
 497 0008 0E48     		ldr	r0, .L28+8
 498              		.loc 2 74 0
 499 000a 85B0     		sub	sp, sp, #20
 500              		.cfi_def_cfa_offset 32
 501              		.loc 2 75 0
 502 000c 0025     		movs	r5, #0
 503              		.loc 2 74 0
 504 000e 0392     		str	r2, [sp, #12]
 505              		.loc 2 75 0
 506 0010 4FF4AF61 		mov	r1, #1400
 507 0014 4022     		movs	r2, #64
 508 0016 0095     		str	r5, [sp]
 509 0018 FFF7FEFF 		bl	chThdCreateStatic
 510              	.LVL40:
 511              		.loc 2 76 0
 512 001c 0A4B     		ldr	r3, .L28+12
 513 001e 0095     		str	r5, [sp]
ARM GAS  /var/folders/by/7g7br9lj2xnbkz1cp6hj5p2r0000gn/T//ccDxEYjT.s 			page 10


 514 0020 4022     		movs	r2, #64
 515 0022 0A48     		ldr	r0, .L28+16
 516 0024 4FF41E71 		mov	r1, #632
 517 0028 FFF7FEFF 		bl	chThdCreateStatic
 518              	.LVL41:
 519              		.loc 2 77 0
 520 002c 039A     		ldr	r2, [sp, #12]
 521 002e 2368     		ldr	r3, [r4]
 522 0030 9A42     		cmp	r2, r3
 523 0032 01D1     		bne	.L27
 524 0034 05B0     		add	sp, sp, #20
 525              		.cfi_remember_state
 526              		.cfi_def_cfa_offset 12
 527              		@ sp needed
 528 0036 30BD     		pop	{r4, r5, pc}
 529              	.L27:
 530              		.cfi_restore_state
 531 0038 FFF7FEFF 		bl	__stack_chk_fail
 532              	.LVL42:
 533              	.L29:
 534              		.align	2
 535              	.L28:
 536 003c 00000000 		.word	__stack_chk_guard
 537 0040 00000000 		.word	ProcessImage
 538 0044 00000000 		.word	.LANCHOR4
 539 0048 00000000 		.word	CaptureImage
 540 004c 00000000 		.word	.LANCHOR5
 541              		.cfi_endproc
 542              	.LFE259:
 543              		.size	process_image_start, .-process_image_start
 544              		.section	.bss.waCaptureImage,"aw",%nobits
 545              		.align	3
 546              		.set	.LANCHOR5,. + 0
 547              		.type	waCaptureImage, %object
 548              		.size	waCaptureImage, 632
 549              	waCaptureImage:
 550 0000 00000000 		.space	632
 550      00000000 
 550      00000000 
 550      00000000 
 550      00000000 
 551              		.section	.bss.waProcessImage,"aw",%nobits
 552              		.align	3
 553              		.set	.LANCHOR4,. + 0
 554              		.type	waProcessImage, %object
 555              		.size	waProcessImage, 1400
 556              	waProcessImage:
 557 0000 00000000 		.space	1400
 557      00000000 
 557      00000000 
 557      00000000 
 557      00000000 
 558              		.section	.data.image_ready_sem,"aw",%progbits
 559              		.align	2
 560              		.set	.LANCHOR1,. + 0
 561              		.type	image_ready_sem, %object
 562              		.size	image_ready_sem, 12
ARM GAS  /var/folders/by/7g7br9lj2xnbkz1cp6hj5p2r0000gn/T//ccDxEYjT.s 			page 11


 563              	image_ready_sem:
 564 0000 00000000 		.word	image_ready_sem
 565 0004 00000000 		.word	image_ready_sem
 566 0008 00000000 		.word	0
 567              		.section	.rodata.ProcessImage.str1.4,"aMS",%progbits,1
 568              		.align	2
 569              	.LC0:
 570 0000 43414D45 		.ascii	"CAMERA\015\012\000"
 570      52410D0A 
 570      00
 571 0009 000000   		.space	3
 572              	.LC1:
 573 000c 523D2533 		.ascii	"R=%3d, G=%3d, B=%3d\015\012\012\000"
 573      642C2047 
 573      3D253364 
 573      2C20423D 
 573      2533640D 
 574              		.section	.rodata.__FUNCTION__.11370,"a",%progbits
 575              		.align	2
 576              		.set	.LANCHOR2,. + 0
 577              		.type	__FUNCTION__.11370, %object
 578              		.size	__FUNCTION__.11370, 13
 579              	__FUNCTION__.11370:
 580 0000 43617074 		.ascii	"CaptureImage\000"
 580      75726549 
 580      6D616765 
 580      00
 581              		.section	.rodata.__FUNCTION__.11376,"a",%progbits
 582              		.align	2
 583              		.set	.LANCHOR0,. + 0
 584              		.type	__FUNCTION__.11376, %object
 585              		.size	__FUNCTION__.11376, 13
 586              	__FUNCTION__.11376:
 587 0000 50726F63 		.ascii	"ProcessImage\000"
 587      65737349 
 587      6D616765 
 587      00
 588              		.section	.rodata.__func__.7153,"a",%progbits
 589              		.align	2
 590              		.set	.LANCHOR3,. + 0
 591              		.type	__func__.7153, %object
 592              		.size	__func__.7153, 12
 593              	__func__.7153:
 594 0000 63685379 		.ascii	"chSysUnlock\000"
 594      73556E6C 
 594      6F636B00 
 595              		.text
 596              	.Letext0:
 597              		.file 7 "/Applications/Eclipse_e-puck2.app/Contents/Eclipse_e-puck2/Tools/gcc-arm-none-eabi-7-2017
 598              		.file 8 "/Applications/Eclipse_e-puck2.app/Contents/Eclipse_e-puck2/Tools/gcc-arm-none-eabi-7-2017
 599              		.file 9 "/Applications/Eclipse_e-puck2.app/Contents/Eclipse_e-puck2/Tools/gcc-arm-none-eabi-7-2017
 600              		.file 10 "../../lib/e-puck2_main-processor/ChibiOS//os/rt/ports/ARMCMx/compilers/GCC/chtypes.h"
 601              		.file 11 "../../lib/e-puck2_main-processor/ChibiOS//os/rt/include/chsystypes.h"
 602              		.file 12 "../../lib/e-puck2_main-processor/ChibiOS//os/rt/include/chschd.h"
 603              		.file 13 "../../lib/e-puck2_main-processor/ChibiOS//os/ext/CMSIS/include/core_cm4.h"
 604              		.file 14 "../../lib/e-puck2_main-processor/ChibiOS//os/ext/CMSIS/ST/system_stm32f4xx.h"
 605              		.file 15 "../../lib/e-puck2_main-processor/ChibiOS//os/ext/CMSIS/ST/stm32f407xx.h"
ARM GAS  /var/folders/by/7g7br9lj2xnbkz1cp6hj5p2r0000gn/T//ccDxEYjT.s 			page 12


 606              		.file 16 "../../lib/e-puck2_main-processor/ChibiOS//os/rt/ports/ARMCMx/chcore.h"
 607              		.file 17 "../../lib/e-puck2_main-processor/ChibiOS//os/rt/ports/ARMCMx/chcore_v7m.h"
 608              		.file 18 "../../lib/e-puck2_main-processor/ChibiOS//os/rt/include/chdebug.h"
 609              		.file 19 "../../lib/e-puck2_main-processor/ChibiOS//os/rt/include/chtm.h"
 610              		.file 20 "../../lib/e-puck2_main-processor/ChibiOS//os/rt/include/chstats.h"
 611              		.file 21 "../../lib/e-puck2_main-processor/ChibiOS//os/rt/include/chsem.h"
 612              		.file 22 "../../lib/e-puck2_main-processor/ChibiOS//os/rt/include/chmtx.h"
 613              		.file 23 "../../lib/e-puck2_main-processor/ChibiOS//os/rt/include/chevents.h"
 614              		.file 24 "../../lib/e-puck2_main-processor/ChibiOS//os/rt/include/chqueues.h"
 615              		.file 25 "../../lib/e-puck2_main-processor/ChibiOS//os/rt/include/chstreams.h"
 616              		.file 26 "../../lib/e-puck2_main-processor/ChibiOS//os/hal/ports/STM32/STM32F4xx/stm32_dma.h"
 617              		.file 27 "../../lib/e-puck2_main-processor/ChibiOS//os/hal/include/hal_ioblock.h"
 618              		.file 28 "../../lib/e-puck2_main-processor/ChibiOS//os/hal/ports/STM32/LLD/GPIOv2/pal_lld.h"
 619              		.file 29 "../../lib/e-puck2_main-processor/ChibiOS//os/hal/include/adc.h"
 620              		.file 30 "../../lib/e-puck2_main-processor/ChibiOS//os/hal/ports/STM32/STM32F4xx/adc_lld.h"
 621              		.file 31 "../../lib/e-puck2_main-processor/ChibiOS//os/hal/include/can.h"
 622              		.file 32 "../../lib/e-puck2_main-processor/ChibiOS//os/hal/ports/STM32/LLD/can_lld.h"
 623              		.file 33 "../../lib/e-puck2_main-processor/ChibiOS//os/hal/include/dac.h"
 624              		.file 34 "../../lib/e-puck2_main-processor/ChibiOS//os/hal/ports/STM32/LLD/DACv1/dac_lld.h"
 625              		.file 35 "../../lib/e-puck2_main-processor/ChibiOS//os/hal/include/ext.h"
 626              		.file 36 "../../lib/e-puck2_main-processor/ChibiOS//os/hal/ports/STM32/LLD/ext_lld.h"
 627              		.file 37 "../../lib/e-puck2_main-processor/ChibiOS//os/hal/include/gpt.h"
 628              		.file 38 "../../lib/e-puck2_main-processor/ChibiOS//os/hal/ports/STM32/LLD/TIMv1/gpt_lld.h"
 629              		.file 39 "../../lib/e-puck2_main-processor/ChibiOS//os/hal/ports/STM32/LLD/TIMv1/stm32_tim.h"
 630              		.file 40 "../../lib/e-puck2_main-processor/ChibiOS//os/hal/include/i2c.h"
 631              		.file 41 "../../lib/e-puck2_main-processor/ChibiOS//os/hal/ports/STM32/LLD/I2Cv1/i2c_lld.h"
 632              		.file 42 "../../lib/e-puck2_main-processor/ChibiOS//os/hal/include/i2s.h"
 633              		.file 43 "../../lib/e-puck2_main-processor/ChibiOS//os/hal/ports/STM32/LLD/SPIv1/i2s_lld.h"
 634              		.file 44 "../../lib/e-puck2_main-processor/ChibiOS//os/hal/include/pwm.h"
 635              		.file 45 "../../lib/e-puck2_main-processor/ChibiOS//os/hal/ports/STM32/LLD/TIMv1/pwm_lld.h"
 636              		.file 46 "../../lib/e-puck2_main-processor/ChibiOS//os/hal/include/serial.h"
 637              		.file 47 "../../lib/e-puck2_main-processor/ChibiOS//os/hal/ports/STM32/LLD/USARTv1/serial_lld.h"
 638              		.file 48 "../../lib/e-puck2_main-processor/ChibiOS//os/hal/include/sdc.h"
 639              		.file 49 "../../lib/e-puck2_main-processor/ChibiOS//os/hal/ports/STM32/LLD/sdc_lld.h"
 640              		.file 50 "../../lib/e-puck2_main-processor/ChibiOS//os/hal/include/spi.h"
 641              		.file 51 "../../lib/e-puck2_main-processor/ChibiOS//os/hal/ports/STM32/LLD/SPIv1/spi_lld.h"
 642              		.file 52 "../../lib/e-puck2_main-processor/ChibiOS//os/hal/include/usb.h"
 643              		.file 53 "../../lib/e-puck2_main-processor/ChibiOS//os/hal/ports/STM32/LLD/OTGv1/usb_lld.h"
 644              		.file 54 "../../lib/e-puck2_main-processor/ChibiOS//os/hal/ports/STM32/LLD/OTGv1/stm32_otg.h"
 645              		.file 55 "../../lib/e-puck2_main-processor/ChibiOS//os/hal/include/serial_usb.h"
 646              		.file 56 "/Applications/Eclipse_e-puck2.app/Contents/Eclipse_e-puck2/Tools/gcc-arm-none-eabi-7-201
 647              		.file 57 "<built-in>"
 648              		.file 58 "../../lib/e-puck2_main-processor/src/usbcfg.h"
 649              		.file 59 "../../lib/e-puck2_main-processor/ChibiOS_ext/os/hal/include/../ports/STM32/STM32F4xx/dcm
 650              		.file 60 "../../lib/e-puck2_main-processor/src/camera/po8030.h"
 651              		.file 61 "../../lib/e-puck2_main-processor/src/camera/dcmi_camera.h"
 652              		.file 62 "/Applications/Eclipse_e-puck2.app/Contents/Eclipse_e-puck2/Tools/gcc-arm-none-eabi-7-201
 653              		.file 63 "/Applications/Eclipse_e-puck2.app/Contents/Eclipse_e-puck2/Tools/gcc-arm-none-eabi-7-201
 654              		.file 64 "/Applications/Eclipse_e-puck2.app/Contents/Eclipse_e-puck2/Tools/gcc-arm-none-eabi-7-201
 655              		.file 65 "../../lib/e-puck2_main-processor/src/msgbus/messagebus.h"
 656              		.file 66 "/Applications/Eclipse_e-puck2.app/Contents/Eclipse_e-puck2/Tools/gcc-arm-none-eabi-7-201
 657              		.file 67 "/Applications/Eclipse_e-puck2.app/Contents/Eclipse_e-puck2/Tools/gcc-arm-none-eabi-7-201
 658              		.file 68 "../../lib/e-puck2_main-processor/src/parameter/parameter.h"
 659              		.file 69 "./main.h"
 660              		.file 70 "../../lib/e-puck2_main-processor/ChibiOS//os/rt/include/chthreads.h"