ARM GAS  /var/folders/by/7g7br9lj2xnbkz1cp6hj5p2r0000gn/T//cclAZm1T.s 			page 1


   1              		.cpu cortex-m4
   2              		.eabi_attribute 27, 1
   3              		.eabi_attribute 28, 1
   4              		.eabi_attribute 20, 1
   5              		.eabi_attribute 21, 1
   6              		.eabi_attribute 23, 3
   7              		.eabi_attribute 24, 1
   8              		.eabi_attribute 25, 1
   9              		.eabi_attribute 26, 1
  10              		.eabi_attribute 30, 2
  11              		.eabi_attribute 34, 1
  12              		.eabi_attribute 18, 4
  13              		.file	"process_image.c"
  14              		.text
  15              	.Ltext0:
  16              		.cfi_sections	.debug_frame
  17              		.section	.text.chprintf.constprop.0,"ax",%progbits
  18              		.align	1
  19              		.p2align 4,,15
  20              		.syntax unified
  21              		.thumb
  22              		.thumb_func
  23              		.fpu fpv4-sp-d16
  24              		.type	chprintf.constprop.0, %function
  25              	chprintf.constprop.0:
  26              	.LFB264:
  27              		.file 1 "../../lib/e-puck2_main-processor/ChibiOS//os/hal/lib/streams/chprintf.h"
  28              		.loc 1 69 0
  29              		.cfi_startproc
  30              		@ args = 4, pretend = 12, frame = 8
  31              		@ frame_needed = 0, uses_anonymous_args = 1
  32              	.LVL0:
  33 0000 0EB4     		push	{r1, r2, r3}
  34              		.cfi_def_cfa_offset 12
  35              		.cfi_offset 1, -12
  36              		.cfi_offset 2, -8
  37              		.cfi_offset 3, -4
  38 0002 10B5     		push	{r4, lr}
  39              		.cfi_def_cfa_offset 20
  40              		.cfi_offset 4, -20
  41              		.cfi_offset 14, -16
  42 0004 0A4C     		ldr	r4, .L6
  43              		.loc 1 74 0
  44 0006 0B49     		ldr	r1, .L6+4
  45              		.loc 1 69 0
  46 0008 2368     		ldr	r3, [r4]
  47              		.loc 1 74 0
  48 000a 0B48     		ldr	r0, .L6+8
  49              	.LVL1:
  50              		.loc 1 69 0
  51 000c 83B0     		sub	sp, sp, #12
  52              		.cfi_def_cfa_offset 32
  53              		.loc 1 69 0
  54 000e 0193     		str	r3, [sp, #4]
  55              	.LVL2:
  56              		.loc 1 73 0
  57 0010 06AB     		add	r3, sp, #24
ARM GAS  /var/folders/by/7g7br9lj2xnbkz1cp6hj5p2r0000gn/T//cclAZm1T.s 			page 2


  58              		.loc 1 74 0
  59 0012 1A46     		mov	r2, r3
  60              		.loc 1 73 0
  61 0014 0093     		str	r3, [sp]
  62              		.loc 1 74 0
  63 0016 FFF7FEFF 		bl	chvprintf
  64              	.LVL3:
  65              		.loc 1 78 0
  66 001a 019A     		ldr	r2, [sp, #4]
  67 001c 2368     		ldr	r3, [r4]
  68 001e 9A42     		cmp	r2, r3
  69 0020 04D1     		bne	.L5
  70 0022 03B0     		add	sp, sp, #12
  71              		.cfi_remember_state
  72              		.cfi_def_cfa_offset 20
  73              		@ sp needed
  74 0024 BDE81040 		pop	{r4, lr}
  75              		.cfi_restore 14
  76              		.cfi_restore 4
  77              		.cfi_def_cfa_offset 12
  78 0028 03B0     		add	sp, sp, #12
  79              		.cfi_restore 3
  80              		.cfi_restore 2
  81              		.cfi_restore 1
  82              		.cfi_def_cfa_offset 0
  83 002a 7047     		bx	lr
  84              	.L5:
  85              		.cfi_restore_state
  86 002c FFF7FEFF 		bl	__stack_chk_fail
  87              	.LVL4:
  88              	.L7:
  89              		.align	2
  90              	.L6:
  91 0030 00000000 		.word	__stack_chk_guard
  92 0034 00000000 		.word	.LC0
  93 0038 00000000 		.word	SDU1
  94              		.cfi_endproc
  95              	.LFE264:
  96              		.size	chprintf.constprop.0, .-chprintf.constprop.0
  97              		.section	.text.CaptureImage,"ax",%progbits
  98              		.align	1
  99              		.p2align 4,,15
 100              		.syntax unified
 101              		.thumb
 102              		.thumb_func
 103              		.fpu fpv4-sp-d16
 104              		.type	CaptureImage, %function
 105              	CaptureImage:
 106              	.LFB258:
 107              		.file 2 "process_image.c"
 108              		.loc 2 109 0
 109              		.cfi_startproc
 110              		@ args = 0, pretend = 0, frame = 8
 111              		@ frame_needed = 0, uses_anonymous_args = 0
 112              	.LVL5:
 113 0000 2DE9F047 		push	{r4, r5, r6, r7, r8, r9, r10, lr}
 114              		.cfi_def_cfa_offset 32
ARM GAS  /var/folders/by/7g7br9lj2xnbkz1cp6hj5p2r0000gn/T//cclAZm1T.s 			page 3


 115              		.cfi_offset 4, -32
 116              		.cfi_offset 5, -28
 117              		.cfi_offset 6, -24
 118              		.cfi_offset 7, -20
 119              		.cfi_offset 8, -16
 120              		.cfi_offset 9, -12
 121              		.cfi_offset 10, -8
 122              		.cfi_offset 14, -4
 123              	.LBB104:
 124              	.LBB105:
 125              		.file 3 "../../lib/e-puck2_main-processor/ChibiOS//os/rt/include/chregistry.h"
 126              		.loc 3 135 0
 127 0004 3F4C     		ldr	r4, .L16
 128              	.LBE105:
 129              	.LBE104:
 130              		.loc 2 109 0
 131 0006 404A     		ldr	r2, .L16+4
 132              	.LBB107:
 133              	.LBB106:
 134              		.loc 3 135 0
 135 0008 A369     		ldr	r3, [r4, #24]
 136 000a 4049     		ldr	r1, .L16+8
 137 000c 9961     		str	r1, [r3, #24]
 138              	.LBE106:
 139              	.LBE107:
 140              		.loc 2 109 0
 141 000e 86B0     		sub	sp, sp, #24
 142              		.cfi_def_cfa_offset 56
 143              		.loc 2 123 0
 144 0010 0223     		movs	r3, #2
 145 0012 2025     		movs	r5, #32
 146              		.loc 2 109 0
 147 0014 1668     		ldr	r6, [r2]
 148              		.loc 2 123 0
 149 0016 0093     		str	r3, [sp]
 150 0018 0A22     		movs	r2, #10
 151 001a 4FF42073 		mov	r3, #640
 152 001e 0021     		movs	r1, #0
 153 0020 CDE90155 		strd	r5, r5, [sp, #4]
 154 0024 3020     		movs	r0, #48
 155              	.LVL6:
 156              		.loc 2 109 0
 157 0026 0596     		str	r6, [sp, #20]
 158              		.loc 2 123 0
 159 0028 FFF7FEFF 		bl	po8030_advanced_config
 160              	.LVL7:
 161              		.loc 2 124 0
 162 002c FFF7FEFF 		bl	dcmi_enable_double_buffering
 163              	.LVL8:
 164              		.loc 2 125 0
 165 0030 0020     		movs	r0, #0
 166 0032 FFF7FEFF 		bl	dcmi_set_capture_mode
 167              	.LVL9:
 168 0036 DFF8E080 		ldr	r8, .L16+20
 169              	.LBB108:
 170              	.LBB109:
 171              	.LBB110:
ARM GAS  /var/folders/by/7g7br9lj2xnbkz1cp6hj5p2r0000gn/T//cclAZm1T.s 			page 4


 172              	.LBB111:
 173              		.file 4 "../../lib/e-puck2_main-processor/ChibiOS//os/rt/include/chsys.h"
 174              		.loc 4 367 0
 175 003a DFF8E090 		ldr	r9, .L16+24
 176              	.LBE111:
 177              	.LBE110:
 178              	.LBE109:
 179              	.LBE108:
 180              		.loc 2 126 0
 181 003e FFF7FEFF 		bl	dcmi_prepare
 182              	.LVL10:
 183              	.LBB131:
 184              	.LBB129:
 185              	.LBB120:
 186              	.LBB118:
 187              	.LBB112:
 188              	.LBB113:
 189              	.LBB114:
 190              		.file 5 "../../lib/e-puck2_main-processor/ChibiOS//os/ext/CMSIS/include/core_cmFunc.h"
 191              		.loc 5 546 0
 192 0042 0026     		movs	r6, #0
 193 0044 31E0     		b	.L13
 194              	.LVL11:
 195              	.L10:
 196              	.LBE114:
 197              	.LBE113:
 198              	.LBE112:
 199              	.LBE118:
 200              	.LBE120:
 201              	.LBE129:
 202              	.LBE131:
 203              	.LBB132:
 204              	.LBB133:
 205              		.file 6 "../../lib/e-puck2_main-processor/ChibiOS//os/rt/include/chbsem.h"
 206              		.loc 6 286 0
 207 0046 FFF7FEFF 		bl	chSchRescheduleS
 208              	.LVL12:
 209              	.LBB134:
 210              	.LBB135:
 211              		.loc 4 360 0
 212 004a FFF7FEFF 		bl	_dbg_check_unlock
 213              	.LVL13:
 214              		.loc 4 361 0
 215 004e FFF7FEFF 		bl	_stats_stop_measure_crit_thd
 216              	.LVL14:
 217              		.loc 4 367 0
 218 0052 2368     		ldr	r3, [r4]
 219 0054 A342     		cmp	r3, r4
 220 0056 07D0     		beq	.L11
 221 0058 A269     		ldr	r2, [r4, #24]
 222 005a 9B68     		ldr	r3, [r3, #8]
 223 005c 9268     		ldr	r2, [r2, #8]
 224 005e 9A42     		cmp	r2, r3
 225 0060 02D2     		bcs	.L11
 226 0062 4846     		mov	r0, r9
 227 0064 FFF7FEFF 		bl	chSysHalt
 228              	.LVL15:
ARM GAS  /var/folders/by/7g7br9lj2xnbkz1cp6hj5p2r0000gn/T//cclAZm1T.s 			page 5


 229              	.L11:
 230              	.LBB136:
 231              	.LBB137:
 232              	.LBB138:
 233              		.loc 5 546 0
 234              		.syntax unified
 235              	@ 546 "../../lib/e-puck2_main-processor/ChibiOS//os/ext/CMSIS/include/core_cmFunc.h" 1
 236 0068 86F31188 		MSR basepri, r6
 237              	@ 0 "" 2
 238              	.LVL16:
 239              		.thumb
 240              		.syntax unified
 241              	.LBE138:
 242              	.LBE137:
 243              	.LBE136:
 244              	.LBE135:
 245              	.LBE134:
 246              	.LBE133:
 247              	.LBE132:
 248              	.LBB147:
 249              	.LBB148:
 250              	.LBB149:
 251              	.LBB150:
 252              	.LBB151:
 253              	.LBB152:
 254              	.LBB153:
 255              		.syntax unified
 256              	@ 546 "../../lib/e-puck2_main-processor/ChibiOS//os/ext/CMSIS/include/core_cmFunc.h" 1
 257 006c 85F31188 		MSR basepri, r5
 258              	@ 0 "" 2
 259              	.LVL17:
 260              		.thumb
 261              		.syntax unified
 262              	.LBE153:
 263              	.LBE152:
 264              	.LBE151:
 265              		.loc 4 349 0
 266 0070 FFF7FEFF 		bl	_stats_start_measure_crit_thd
 267              	.LVL18:
 268              		.loc 4 350 0
 269 0074 FFF7FEFF 		bl	_dbg_check_lock
 270              	.LVL19:
 271              	.LBE150:
 272              	.LBE149:
 273              	.LBB154:
 274              	.LBB155:
 275              		.file 7 "../../lib/e-puck2_main-processor/ChibiOS//os/rt/include/chvt.h"
 276              		.loc 7 231 0
 277 0078 D4F828A0 		ldr	r10, [r4, #40]
 278              	.LBE155:
 279              	.LBE154:
 280              	.LBB156:
 281              	.LBB157:
 282              		.loc 4 360 0
 283 007c FFF7FEFF 		bl	_dbg_check_unlock
 284              	.LVL20:
 285              		.loc 4 361 0
ARM GAS  /var/folders/by/7g7br9lj2xnbkz1cp6hj5p2r0000gn/T//cclAZm1T.s 			page 6


 286 0080 FFF7FEFF 		bl	_stats_stop_measure_crit_thd
 287              	.LVL21:
 288              		.loc 4 367 0
 289 0084 2368     		ldr	r3, [r4]
 290 0086 A342     		cmp	r3, r4
 291 0088 07D0     		beq	.L12
 292 008a A269     		ldr	r2, [r4, #24]
 293 008c 9B68     		ldr	r3, [r3, #8]
 294 008e 9268     		ldr	r2, [r2, #8]
 295 0090 9A42     		cmp	r2, r3
 296 0092 02D2     		bcs	.L12
 297 0094 4846     		mov	r0, r9
 298 0096 FFF7FEFF 		bl	chSysHalt
 299              	.LVL22:
 300              	.L12:
 301              	.LBB158:
 302              	.LBB159:
 303              	.LBB160:
 304              		.loc 5 546 0
 305              		.syntax unified
 306              	@ 546 "../../lib/e-puck2_main-processor/ChibiOS//os/ext/CMSIS/include/core_cmFunc.h" 1
 307 009a 86F31188 		MSR basepri, r6
 308              	@ 0 "" 2
 309              	.LVL23:
 310              		.thumb
 311              		.syntax unified
 312              	.LBE160:
 313              	.LBE159:
 314              	.LBE158:
 315              	.LBE157:
 316              	.LBE156:
 317              	.LBE148:
 318              	.LBE147:
 319              		.loc 2 144 0
 320 009e 1C49     		ldr	r1, .L16+12
 321 00a0 1C48     		ldr	r0, .L16+16
 322 00a2 AAEB0702 		sub	r2, r10, r7
 323 00a6 FFF7FEFF 		bl	chprintf.constprop.0
 324              	.LVL24:
 325              	.L13:
 326              	.LBB161:
 327              	.LBB130:
 328              	.LBB121:
 329              	.LBB122:
 330              	.LBB123:
 331              	.LBB124:
 332              	.LBB125:
 333              		.loc 5 546 0 discriminator 1
 334              		.syntax unified
 335              	@ 546 "../../lib/e-puck2_main-processor/ChibiOS//os/ext/CMSIS/include/core_cmFunc.h" 1
 336 00aa 85F31188 		MSR basepri, r5
 337              	@ 0 "" 2
 338              	.LVL25:
 339              		.thumb
 340              		.syntax unified
 341              	.LBE125:
 342              	.LBE124:
ARM GAS  /var/folders/by/7g7br9lj2xnbkz1cp6hj5p2r0000gn/T//cclAZm1T.s 			page 7


 343              	.LBE123:
 344              		.loc 4 349 0 discriminator 1
 345 00ae FFF7FEFF 		bl	_stats_start_measure_crit_thd
 346              	.LVL26:
 347              		.loc 4 350 0 discriminator 1
 348 00b2 FFF7FEFF 		bl	_dbg_check_lock
 349              	.LVL27:
 350              	.LBE122:
 351              	.LBE121:
 352              	.LBB126:
 353              	.LBB127:
 354              		.loc 7 231 0 discriminator 1
 355 00b6 A76A     		ldr	r7, [r4, #40]
 356              	.LBE127:
 357              	.LBE126:
 358              	.LBB128:
 359              	.LBB119:
 360              		.loc 4 360 0 discriminator 1
 361 00b8 FFF7FEFF 		bl	_dbg_check_unlock
 362              	.LVL28:
 363              		.loc 4 361 0 discriminator 1
 364 00bc FFF7FEFF 		bl	_stats_stop_measure_crit_thd
 365              	.LVL29:
 366              		.loc 4 367 0 discriminator 1
 367 00c0 2368     		ldr	r3, [r4]
 368 00c2 A342     		cmp	r3, r4
 369 00c4 07D0     		beq	.L9
 370              		.loc 4 367 0 is_stmt 0
 371 00c6 A269     		ldr	r2, [r4, #24]
 372 00c8 9B68     		ldr	r3, [r3, #8]
 373 00ca 9268     		ldr	r2, [r2, #8]
 374 00cc 9A42     		cmp	r2, r3
 375 00ce 02D2     		bcs	.L9
 376 00d0 4846     		mov	r0, r9
 377 00d2 FFF7FEFF 		bl	chSysHalt
 378              	.LVL30:
 379              	.L9:
 380              	.LBB117:
 381              	.LBB116:
 382              	.LBB115:
 383              		.loc 5 546 0 is_stmt 1
 384              		.syntax unified
 385              	@ 546 "../../lib/e-puck2_main-processor/ChibiOS//os/ext/CMSIS/include/core_cmFunc.h" 1
 386 00d6 86F31188 		MSR basepri, r6
 387              	@ 0 "" 2
 388              	.LVL31:
 389              		.thumb
 390              		.syntax unified
 391              	.LBE115:
 392              	.LBE116:
 393              	.LBE117:
 394              	.LBE119:
 395              	.LBE128:
 396              	.LBE130:
 397              	.LBE161:
 398              		.loc 2 131 0
 399 00da FFF7FEFF 		bl	dcmi_capture_start
ARM GAS  /var/folders/by/7g7br9lj2xnbkz1cp6hj5p2r0000gn/T//cclAZm1T.s 			page 8


 400              	.LVL32:
 401              		.loc 2 133 0
 402 00de FFF7FEFF 		bl	wait_image_ready
 403              	.LVL33:
 404              	.LBB162:
 405              	.LBB146:
 406              	.LBB139:
 407              	.LBB140:
 408              	.LBB141:
 409              	.LBB142:
 410              	.LBB143:
 411              		.loc 5 546 0
 412              		.syntax unified
 413              	@ 546 "../../lib/e-puck2_main-processor/ChibiOS//os/ext/CMSIS/include/core_cmFunc.h" 1
 414 00e2 85F31188 		MSR basepri, r5
 415              	@ 0 "" 2
 416              	.LVL34:
 417              		.thumb
 418              		.syntax unified
 419              	.LBE143:
 420              	.LBE142:
 421              	.LBE141:
 422              		.loc 4 349 0
 423 00e6 FFF7FEFF 		bl	_stats_start_measure_crit_thd
 424              	.LVL35:
 425              		.loc 4 350 0
 426 00ea FFF7FEFF 		bl	_dbg_check_lock
 427              	.LVL36:
 428              	.LBE140:
 429              	.LBE139:
 430              	.LBB144:
 431              	.LBB145:
 432              		.loc 6 268 0
 433 00ee FFF7FEFF 		bl	chDbgCheckClassI
 434              	.LVL37:
 435              		.loc 6 270 0
 436 00f2 D8F80830 		ldr	r3, [r8, #8]
 437 00f6 002B     		cmp	r3, #0
 438 00f8 A5DC     		bgt	.L10
 439              		.loc 6 271 0
 440 00fa 0748     		ldr	r0, .L16+20
 441 00fc FFF7FEFF 		bl	chSemSignalI
 442              	.LVL38:
 443 0100 A1E7     		b	.L10
 444              	.L17:
 445 0102 00BF     		.align	2
 446              	.L16:
 447 0104 00000000 		.word	ch
 448 0108 00000000 		.word	__stack_chk_guard
 449 010c 00000000 		.word	.LANCHOR0
 450 0110 00000000 		.word	.LC0
 451 0114 00000000 		.word	SDU1
 452 0118 00000000 		.word	.LANCHOR2
 453 011c 00000000 		.word	.LANCHOR1
 454              	.LBE145:
 455              	.LBE144:
 456              	.LBE146:
ARM GAS  /var/folders/by/7g7br9lj2xnbkz1cp6hj5p2r0000gn/T//cclAZm1T.s 			page 9


 457              	.LBE162:
 458              		.cfi_endproc
 459              	.LFE258:
 460              		.size	CaptureImage, .-CaptureImage
 461              		.section	.text.extract_line_width,"ax",%progbits
 462              		.align	1
 463              		.p2align 4,,15
 464              		.global	extract_line_width
 465              		.syntax unified
 466              		.thumb
 467              		.thumb_func
 468              		.fpu fpv4-sp-d16
 469              		.type	extract_line_width, %function
 470              	extract_line_width:
 471              	.LFB257:
 472              		.loc 2 26 0
 473              		.cfi_startproc
 474              		@ args = 0, pretend = 0, frame = 8
 475              		@ frame_needed = 0, uses_anonymous_args = 0
 476              	.LVL39:
 477 0000 F0B5     		push	{r4, r5, r6, r7, lr}
 478              		.cfi_def_cfa_offset 20
 479              		.cfi_offset 4, -20
 480              		.cfi_offset 5, -16
 481              		.cfi_offset 6, -12
 482              		.cfi_offset 7, -8
 483              		.cfi_offset 14, -4
 484 0002 344C     		ldr	r4, .L47
 485 0004 83B0     		sub	sp, sp, #12
 486              		.cfi_def_cfa_offset 32
 487              		.loc 2 26 0
 488 0006 2368     		ldr	r3, [r4]
 489 0008 0193     		str	r3, [sp, #4]
 490              	.LVL40:
 491 000a 00F27F25 		addw	r5, r0, #639
 492 000e 431E     		subs	r3, r0, #1
 493              		.loc 2 30 0
 494 0010 0022     		movs	r2, #0
 495              	.LVL41:
 496              	.L19:
 497              	.LBB163:
 498              		.loc 2 36 0 discriminator 3
 499 0012 13F8011F 		ldrb	r1, [r3, #1]!	@ zero_extendqisi2
 500              		.loc 2 35 0 discriminator 3
 501 0016 9D42     		cmp	r5, r3
 502              		.loc 2 36 0 discriminator 3
 503 0018 0A44     		add	r2, r2, r1
 504              	.LVL42:
 505              		.loc 2 35 0 discriminator 3
 506 001a FAD1     		bne	.L19
 507              	.LBE163:
 508              		.loc 2 38 0
 509 001c 2E4B     		ldr	r3, .L47+4
 510 001e 0578     		ldrb	r5, [r0]	@ zero_extendqisi2
 511 0020 A3FB0232 		umull	r3, r2, r3, r2
 512              	.LVL43:
 513 0024 520A     		lsrs	r2, r2, #9
ARM GAS  /var/folders/by/7g7br9lj2xnbkz1cp6hj5p2r0000gn/T//cclAZm1T.s 			page 10


 514              	.LVL44:
 515              		.loc 2 28 0
 516 0026 0021     		movs	r1, #0
 517              		.loc 2 43 0
 518 0028 40F27A26 		movw	r6, #634
 519              	.LVL45:
 520              	.L20:
 521 002c 4B1C     		adds	r3, r1, #1
 522              		.loc 2 47 0
 523 002e 9542     		cmp	r5, r2
 524 0030 9BB2     		uxth	r3, r3
 525 0032 1FD9     		bls	.L22
 526              	.L45:
 527              		.loc 2 47 0 is_stmt 0 discriminator 1
 528 0034 4518     		adds	r5, r0, r1
 529 0036 6D79     		ldrb	r5, [r5, #5]	@ zero_extendqisi2
 530 0038 9542     		cmp	r5, r2
 531 003a 1BD2     		bcs	.L22
 532              	.LVL46:
 533              		.loc 2 55 0 is_stmt 1
 534 003c B342     		cmp	r3, r6
 535 003e 25D8     		bhi	.L21
 536              		.loc 2 55 0 is_stmt 0 discriminator 1
 537 0040 21B3     		cbz	r1, .L21
 538 0042 03F1FF3C 		add	ip, r3, #-1
 539 0046 8444     		add	ip, ip, r0
 540              	.LVL47:
 541              	.L30:
 542              		.loc 2 61 0 is_stmt 1
 543 0048 1CF8015F 		ldrb	r5, [ip, #1]!	@ zero_extendqisi2
 544 004c 9542     		cmp	r5, r2
 545 004e 9FB2     		uxth	r7, r3
 546 0050 15D9     		bls	.L25
 547              		.loc 2 61 0 is_stmt 0 discriminator 1
 548 0052 1CF805EC 		ldrb	lr, [ip, #-5]	@ zero_extendqisi2
 549 0056 9645     		cmp	lr, r2
 550 0058 11D2     		bcs	.L25
 551              	.LVL48:
 552              		.loc 2 80 0 is_stmt 1
 553 005a A7EB010C 		sub	ip, r7, r1
 554 005e BCF1270F 		cmp	ip, #39
 555 0062 3B46     		mov	r3, r7
 556 0064 2ADC     		bgt	.L44
 557              	.LVL49:
 558              		.loc 2 43 0
 559 0066 B742     		cmp	r7, r6
 560 0068 10D8     		bhi	.L21
 561 006a 3946     		mov	r1, r7
 562 006c 4B1C     		adds	r3, r1, #1
 563              		.loc 2 47 0
 564 006e 9542     		cmp	r5, r2
 565 0070 9BB2     		uxth	r3, r3
 566 0072 DFD8     		bhi	.L45
 567              	.LVL50:
 568              	.L22:
 569              		.loc 2 43 0 discriminator 1
 570 0074 B342     		cmp	r3, r6
ARM GAS  /var/folders/by/7g7br9lj2xnbkz1cp6hj5p2r0000gn/T//cclAZm1T.s 			page 11


 571 0076 09D8     		bhi	.L21
 572 0078 C55C     		ldrb	r5, [r0, r3]	@ zero_extendqisi2
 573              	.LVL51:
 574              		.loc 2 43 0 is_stmt 0
 575 007a 1946     		mov	r1, r3
 576 007c D6E7     		b	.L20
 577              	.LVL52:
 578              	.L25:
 579 007e 0137     		adds	r7, r7, #1
 580 0080 BFB2     		uxth	r7, r7
 581              	.LVL53:
 582              		.loc 2 59 0 is_stmt 1
 583 0082 B7F5207F 		cmp	r7, #640
 584 0086 03F10103 		add	r3, r3, #1
 585 008a DDD1     		bne	.L30
 586              	.LVL54:
 587              	.L21:
 588              		.loc 2 92 0
 589 008c 134B     		ldr	r3, .L47+8
 590 008e 1888     		ldrh	r0, [r3]
 591              	.LVL55:
 592              	.L33:
 593              		.loc 2 99 0
 594 0090 DFED136A 		vldr.32	s13, .L47+12
 595              		.loc 2 104 0
 596 0094 019A     		ldr	r2, [sp, #4]
 597 0096 2368     		ldr	r3, [r4]
 598              		.loc 2 99 0
 599 0098 07EE900A 		vmov	s15, r0	@ int
 600 009c F8EEE77A 		vcvt.f32.s32	s15, s15
 601 00a0 86EEA77A 		vdiv.f32	s14, s13, s15
 602 00a4 F3EE097A 		vmov.f32	s15, #2.5e+1
 603              		.loc 2 100 0
 604 00a8 B4EE677A 		vcmp.f32	s14, s15
 605 00ac F1EE10FA 		vmrs	APSR_nzcv, FPSCR
 606              		.loc 2 104 0
 607 00b0 C8BF     		it	gt
 608 00b2 3E20     		movgt	r0, #62
 609              	.LVL56:
 610 00b4 9A42     		cmp	r2, r3
 611 00b6 0AD1     		bne	.L46
 612 00b8 03B0     		add	sp, sp, #12
 613              		.cfi_remember_state
 614              		.cfi_def_cfa_offset 20
 615              		@ sp needed
 616 00ba F0BD     		pop	{r4, r5, r6, r7, pc}
 617              	.LVL57:
 618              	.L44:
 619              		.cfi_restore_state
 620              		.loc 2 94 0
 621 00bc 781A     		subs	r0, r7, r1
 622              	.LVL58:
 623              		.loc 2 95 0
 624 00be 0B44     		add	r3, r3, r1
 625 00c0 084A     		ldr	r2, .L47+16
 626              	.LVL59:
 627              		.loc 2 94 0
ARM GAS  /var/folders/by/7g7br9lj2xnbkz1cp6hj5p2r0000gn/T//cclAZm1T.s 			page 12


 628 00c2 0649     		ldr	r1, .L47+8
 629 00c4 80B2     		uxth	r0, r0
 630              	.LVL60:
 631              		.loc 2 95 0
 632 00c6 5B10     		asrs	r3, r3, #1
 633              		.loc 2 94 0
 634 00c8 0880     		strh	r0, [r1]	@ movhi
 635              		.loc 2 95 0
 636 00ca 1380     		strh	r3, [r2]	@ movhi
 637 00cc E0E7     		b	.L33
 638              	.LVL61:
 639              	.L46:
 640              		.loc 2 104 0
 641 00ce FFF7FEFF 		bl	__stack_chk_fail
 642              	.LVL62:
 643              	.L48:
 644 00d2 00BF     		.align	2
 645              	.L47:
 646 00d4 00000000 		.word	__stack_chk_guard
 647 00d8 CDCCCCCC 		.word	-858993459
 648 00dc 00000000 		.word	.LANCHOR3
 649 00e0 0040C444 		.word	1153712128
 650 00e4 00000000 		.word	.LANCHOR4
 651              		.cfi_endproc
 652              	.LFE257:
 653              		.size	extract_line_width, .-extract_line_width
 654              		.section	.text.ProcessImage,"ax",%progbits
 655              		.align	1
 656              		.p2align 4,,15
 657              		.syntax unified
 658              		.thumb
 659              		.thumb_func
 660              		.fpu fpv4-sp-d16
 661              		.type	ProcessImage, %function
 662              	ProcessImage:
 663              	.LFB259:
 664              		.loc 2 159 0
 665              		.cfi_startproc
 666              		@ args = 0, pretend = 0, frame = 656
 667              		@ frame_needed = 0, uses_anonymous_args = 0
 668              	.LVL63:
 669 0000 F0B5     		push	{r4, r5, r6, r7, lr}
 670              		.cfi_def_cfa_offset 20
 671              		.cfi_offset 4, -20
 672              		.cfi_offset 5, -16
 673              		.cfi_offset 6, -12
 674              		.cfi_offset 7, -8
 675              		.cfi_offset 14, -4
 676 0002 2DED028B 		vpush.64	{d8}
 677              		.cfi_def_cfa_offset 28
 678              		.cfi_offset 80, -28
 679              		.cfi_offset 81, -24
 680              	.LBB164:
 681              	.LBB165:
 682              		.loc 3 135 0
 683 0006 1F4A     		ldr	r2, .L64
 684              	.LBE165:
ARM GAS  /var/folders/by/7g7br9lj2xnbkz1cp6hj5p2r0000gn/T//cclAZm1T.s 			page 13


 685              	.LBE164:
 686              		.loc 2 159 0
 687 0008 1F4B     		ldr	r3, .L64+4
 688              	.LBB167:
 689              	.LBB166:
 690              		.loc 3 135 0
 691 000a 9269     		ldr	r2, [r2, #24]
 692 000c 1F49     		ldr	r1, .L64+8
 693 000e 9161     		str	r1, [r2, #24]
 694              	.LBE166:
 695              	.LBE167:
 696              		.loc 2 159 0
 697 0010 ADF5257D 		sub	sp, sp, #660
 698              		.cfi_def_cfa_offset 688
 699              		.loc 2 165 0
 700 0014 03AF     		add	r7, sp, #12
 701              		.loc 2 159 0
 702 0016 1B68     		ldr	r3, [r3]
 703 0018 A393     		str	r3, [sp, #652]
 704              		.loc 2 165 0
 705 001a 3846     		mov	r0, r7
 706              	.LVL64:
 707 001c 4FF42072 		mov	r2, #640
 708 0020 0021     		movs	r1, #0
 709 0022 FFF7FEFF 		bl	memset
 710              	.LVL65:
 711 0026 1A4E     		ldr	r6, .L64+12
 712              	.LBB168:
 713              	.LBB169:
 714              		.loc 6 143 0
 715 0028 1A4D     		ldr	r5, .L64+16
 716              	.LBE169:
 717              	.LBE168:
 718              		.loc 2 202 0
 719 002a 9FED1B8A 		vldr.32	s16, .L64+20
 720              		.loc 2 171 0
 721 002e 0124     		movs	r4, #1
 722              	.LVL66:
 723              	.L53:
 724              	.LBB171:
 725              	.LBB170:
 726              		.loc 6 143 0
 727 0030 2846     		mov	r0, r5
 728 0032 FFF7FEFF 		bl	chSemWait
 729              	.LVL67:
 730              	.LBE170:
 731              	.LBE171:
 732              		.loc 2 177 0
 733 0036 FFF7FEFF 		bl	dcmi_get_last_image_ptr
 734              	.LVL68:
 735 003a 00F5A06C 		add	ip, r0, #1280
 736 003e 0346     		mov	r3, r0
 737              	.LVL69:
 738              	.L50:
 739              	.LBB172:
 740              		.loc 2 193 0 discriminator 3
 741 0040 5978     		ldrb	r1, [r3, #1]	@ zero_extendqisi2
ARM GAS  /var/folders/by/7g7br9lj2xnbkz1cp6hj5p2r0000gn/T//cclAZm1T.s 			page 14


 742 0042 1A1A     		subs	r2, r3, r0
 743 0044 C2F34E02 		ubfx	r2, r2, #1, #15
 744 0048 0233     		adds	r3, r3, #2
 745              	.LVL70:
 746 004a 01F01F01 		and	r1, r1, #31
 747              		.loc 2 190 0 discriminator 3
 748 004e 6345     		cmp	r3, ip
 749              		.loc 2 193 0 discriminator 3
 750 0050 B954     		strb	r1, [r7, r2]
 751              		.loc 2 190 0 discriminator 3
 752 0052 F5D1     		bne	.L50
 753              	.LBE172:
 754              		.loc 2 198 0
 755 0054 3846     		mov	r0, r7
 756              	.LVL71:
 757 0056 FFF7FEFF 		bl	extract_line_width
 758              	.LVL72:
 759              		.loc 2 201 0
 760 005a 0190     		str	r0, [sp, #4]
 761 005c 38B1     		cbz	r0, .L51
 762              		.loc 2 202 0
 763 005e 07EE900A 		vmov	s15, r0	@ int
 764 0062 F8EEE77A 		vcvt.f32.s32	s15, s15
 765 0066 88EE277A 		vdiv.f32	s14, s16, s15
 766 006a 86ED007A 		vstr.32	s14, [r6]
 767              	.L51:
 768              		.loc 2 205 0
 769 006e 14B9     		cbnz	r4, .L63
 770              	.LVL73:
 771              	.L52:
 772              		.loc 2 210 0
 773 0070 84F00104 		eor	r4, r4, #1
 774              	.LVL74:
 775              		.loc 2 175 0
 776 0074 DCE7     		b	.L53
 777              	.LVL75:
 778              	.L63:
 779              		.loc 2 207 0
 780 0076 4FF42071 		mov	r1, #640
 781 007a 3846     		mov	r0, r7
 782              	.LVL76:
 783 007c FFF7FEFF 		bl	SendUint8ToComputer
 784              	.LVL77:
 785 0080 F6E7     		b	.L52
 786              	.L65:
 787 0082 00BF     		.align	2
 788              	.L64:
 789 0084 00000000 		.word	ch
 790 0088 00000000 		.word	__stack_chk_guard
 791 008c 00000000 		.word	.LANCHOR5
 792 0090 00000000 		.word	.LANCHOR6
 793 0094 00000000 		.word	.LANCHOR2
 794 0098 0040C444 		.word	1153712128
 795              		.cfi_endproc
 796              	.LFE259:
 797              		.size	ProcessImage, .-ProcessImage
 798              		.section	.text.get_distance_cm,"ax",%progbits
ARM GAS  /var/folders/by/7g7br9lj2xnbkz1cp6hj5p2r0000gn/T//cclAZm1T.s 			page 15


 799              		.align	1
 800              		.p2align 4,,15
 801              		.global	get_distance_cm
 802              		.syntax unified
 803              		.thumb
 804              		.thumb_func
 805              		.fpu fpv4-sp-d16
 806              		.type	get_distance_cm, %function
 807              	get_distance_cm:
 808              	.LFB260:
 809              		.loc 2 217 0
 810              		.cfi_startproc
 811              		@ args = 0, pretend = 0, frame = 8
 812              		@ frame_needed = 0, uses_anonymous_args = 0
 813 0000 00B5     		push	{lr}
 814              		.cfi_def_cfa_offset 4
 815              		.cfi_offset 14, -4
 816 0002 084B     		ldr	r3, .L70
 817              		.loc 2 218 0
 818 0004 0849     		ldr	r1, .L70+4
 819              		.loc 2 217 0
 820 0006 1A68     		ldr	r2, [r3]
 821              		.loc 2 219 0
 822 0008 91ED000A 		vldr.32	s0, [r1]
 823              		.loc 2 217 0
 824 000c 83B0     		sub	sp, sp, #12
 825              		.cfi_def_cfa_offset 16
 826              		.loc 2 217 0
 827 000e 0192     		str	r2, [sp, #4]
 828              		.loc 2 219 0
 829 0010 019A     		ldr	r2, [sp, #4]
 830 0012 1B68     		ldr	r3, [r3]
 831 0014 9A42     		cmp	r2, r3
 832 0016 02D1     		bne	.L69
 833 0018 03B0     		add	sp, sp, #12
 834              		.cfi_remember_state
 835              		.cfi_def_cfa_offset 4
 836              		@ sp needed
 837 001a 5DF804FB 		ldr	pc, [sp], #4
 838              	.L69:
 839              		.cfi_restore_state
 840 001e FFF7FEFF 		bl	__stack_chk_fail
 841              	.LVL78:
 842              	.L71:
 843 0022 00BF     		.align	2
 844              	.L70:
 845 0024 00000000 		.word	__stack_chk_guard
 846 0028 00000000 		.word	.LANCHOR6
 847              		.cfi_endproc
 848              	.LFE260:
 849              		.size	get_distance_cm, .-get_distance_cm
 850              		.section	.text.get_line_position,"ax",%progbits
 851              		.align	1
 852              		.p2align 4,,15
 853              		.global	get_line_position
 854              		.syntax unified
 855              		.thumb
ARM GAS  /var/folders/by/7g7br9lj2xnbkz1cp6hj5p2r0000gn/T//cclAZm1T.s 			page 16


 856              		.thumb_func
 857              		.fpu fpv4-sp-d16
 858              		.type	get_line_position, %function
 859              	get_line_position:
 860              	.LFB261:
 861              		.loc 2 221 0
 862              		.cfi_startproc
 863              		@ args = 0, pretend = 0, frame = 8
 864              		@ frame_needed = 0, uses_anonymous_args = 0
 865 0000 00B5     		push	{lr}
 866              		.cfi_def_cfa_offset 4
 867              		.cfi_offset 14, -4
 868 0002 074B     		ldr	r3, .L76
 869              		.loc 2 222 0
 870 0004 0749     		ldr	r1, .L76+4
 871              		.loc 2 221 0
 872 0006 1A68     		ldr	r2, [r3]
 873              		.loc 2 223 0
 874 0008 0888     		ldrh	r0, [r1]
 875              		.loc 2 221 0
 876 000a 83B0     		sub	sp, sp, #12
 877              		.cfi_def_cfa_offset 16
 878              		.loc 2 221 0
 879 000c 0192     		str	r2, [sp, #4]
 880              		.loc 2 223 0
 881 000e 019A     		ldr	r2, [sp, #4]
 882 0010 1B68     		ldr	r3, [r3]
 883 0012 9A42     		cmp	r2, r3
 884 0014 02D1     		bne	.L75
 885 0016 03B0     		add	sp, sp, #12
 886              		.cfi_remember_state
 887              		.cfi_def_cfa_offset 4
 888              		@ sp needed
 889 0018 5DF804FB 		ldr	pc, [sp], #4
 890              	.L75:
 891              		.cfi_restore_state
 892 001c FFF7FEFF 		bl	__stack_chk_fail
 893              	.LVL79:
 894              	.L77:
 895              		.align	2
 896              	.L76:
 897 0020 00000000 		.word	__stack_chk_guard
 898 0024 00000000 		.word	.LANCHOR4
 899              		.cfi_endproc
 900              	.LFE261:
 901              		.size	get_line_position, .-get_line_position
 902              		.section	.text.process_image_start,"ax",%progbits
 903              		.align	1
 904              		.p2align 4,,15
 905              		.global	process_image_start
 906              		.syntax unified
 907              		.thumb
 908              		.thumb_func
 909              		.fpu fpv4-sp-d16
 910              		.type	process_image_start, %function
 911              	process_image_start:
 912              	.LFB262:
ARM GAS  /var/folders/by/7g7br9lj2xnbkz1cp6hj5p2r0000gn/T//cclAZm1T.s 			page 17


 913              		.loc 2 226 0
 914              		.cfi_startproc
 915              		@ args = 0, pretend = 0, frame = 8
 916              		@ frame_needed = 0, uses_anonymous_args = 0
 917 0000 30B5     		push	{r4, r5, lr}
 918              		.cfi_def_cfa_offset 12
 919              		.cfi_offset 4, -12
 920              		.cfi_offset 5, -8
 921              		.cfi_offset 14, -4
 922 0002 0E4C     		ldr	r4, .L82
 923              		.loc 2 227 0
 924 0004 0E4B     		ldr	r3, .L82+4
 925              		.loc 2 226 0
 926 0006 2268     		ldr	r2, [r4]
 927              		.loc 2 227 0
 928 0008 0E48     		ldr	r0, .L82+8
 929              		.loc 2 226 0
 930 000a 85B0     		sub	sp, sp, #20
 931              		.cfi_def_cfa_offset 32
 932              		.loc 2 227 0
 933 000c 0025     		movs	r5, #0
 934              		.loc 2 226 0
 935 000e 0392     		str	r2, [sp, #12]
 936              		.loc 2 227 0
 937 0010 4FF4AF61 		mov	r1, #1400
 938 0014 4022     		movs	r2, #64
 939 0016 0095     		str	r5, [sp]
 940 0018 FFF7FEFF 		bl	chThdCreateStatic
 941              	.LVL80:
 942              		.loc 2 228 0
 943 001c 0A4B     		ldr	r3, .L82+12
 944 001e 0095     		str	r5, [sp]
 945 0020 4022     		movs	r2, #64
 946 0022 0A48     		ldr	r0, .L82+16
 947 0024 4FF41E71 		mov	r1, #632
 948 0028 FFF7FEFF 		bl	chThdCreateStatic
 949              	.LVL81:
 950              		.loc 2 229 0
 951 002c 039A     		ldr	r2, [sp, #12]
 952 002e 2368     		ldr	r3, [r4]
 953 0030 9A42     		cmp	r2, r3
 954 0032 01D1     		bne	.L81
 955 0034 05B0     		add	sp, sp, #20
 956              		.cfi_remember_state
 957              		.cfi_def_cfa_offset 12
 958              		@ sp needed
 959 0036 30BD     		pop	{r4, r5, pc}
 960              	.L81:
 961              		.cfi_restore_state
 962 0038 FFF7FEFF 		bl	__stack_chk_fail
 963              	.LVL82:
 964              	.L83:
 965              		.align	2
 966              	.L82:
 967 003c 00000000 		.word	__stack_chk_guard
 968 0040 00000000 		.word	ProcessImage
 969 0044 00000000 		.word	.LANCHOR7
ARM GAS  /var/folders/by/7g7br9lj2xnbkz1cp6hj5p2r0000gn/T//cclAZm1T.s 			page 18


 970 0048 00000000 		.word	CaptureImage
 971 004c 00000000 		.word	.LANCHOR8
 972              		.cfi_endproc
 973              	.LFE262:
 974              		.size	process_image_start, .-process_image_start
 975              		.section	.bss.distance_cm,"aw",%nobits
 976              		.align	2
 977              		.set	.LANCHOR6,. + 0
 978              		.type	distance_cm, %object
 979              		.size	distance_cm, 4
 980              	distance_cm:
 981 0000 00000000 		.space	4
 982              		.section	.bss.waCaptureImage,"aw",%nobits
 983              		.align	3
 984              		.set	.LANCHOR8,. + 0
 985              		.type	waCaptureImage, %object
 986              		.size	waCaptureImage, 632
 987              	waCaptureImage:
 988 0000 00000000 		.space	632
 988      00000000 
 988      00000000 
 988      00000000 
 988      00000000 
 989              		.section	.bss.waProcessImage,"aw",%nobits
 990              		.align	3
 991              		.set	.LANCHOR7,. + 0
 992              		.type	waProcessImage, %object
 993              		.size	waProcessImage, 1400
 994              	waProcessImage:
 995 0000 00000000 		.space	1400
 995      00000000 
 995      00000000 
 995      00000000 
 995      00000000 
 996              		.section	.data.image_ready_sem,"aw",%progbits
 997              		.align	2
 998              		.set	.LANCHOR2,. + 0
 999              		.type	image_ready_sem, %object
 1000              		.size	image_ready_sem, 12
 1001              	image_ready_sem:
 1002 0000 00000000 		.word	image_ready_sem
 1003 0004 00000000 		.word	image_ready_sem
 1004 0008 00000000 		.word	0
 1005              		.section	.data.last_width.11339,"aw",%progbits
 1006              		.align	1
 1007              		.set	.LANCHOR3,. + 0
 1008              		.type	last_width.11339, %object
 1009              		.size	last_width.11339, 2
 1010              	last_width.11339:
 1011 0000 9D00     		.short	157
 1012              		.section	.data.line_position,"aw",%progbits
 1013              		.align	1
 1014              		.set	.LANCHOR4,. + 0
 1015              		.type	line_position, %object
 1016              		.size	line_position, 2
 1017              	line_position:
 1018 0000 4001     		.short	320
ARM GAS  /var/folders/by/7g7br9lj2xnbkz1cp6hj5p2r0000gn/T//cclAZm1T.s 			page 19


 1019              		.section	.rodata.__FUNCTION__.11356,"a",%progbits
 1020              		.align	2
 1021              		.set	.LANCHOR0,. + 0
 1022              		.type	__FUNCTION__.11356, %object
 1023              		.size	__FUNCTION__.11356, 13
 1024              	__FUNCTION__.11356:
 1025 0000 43617074 		.ascii	"CaptureImage\000"
 1025      75726549 
 1025      6D616765 
 1025      00
 1026              		.section	.rodata.__FUNCTION__.11363,"a",%progbits
 1027              		.align	2
 1028              		.set	.LANCHOR5,. + 0
 1029              		.type	__FUNCTION__.11363, %object
 1030              		.size	__FUNCTION__.11363, 13
 1031              	__FUNCTION__.11363:
 1032 0000 50726F63 		.ascii	"ProcessImage\000"
 1032      65737349 
 1032      6D616765 
 1032      00
 1033              		.section	.rodata.__func__.7153,"a",%progbits
 1034              		.align	2
 1035              		.set	.LANCHOR1,. + 0
 1036              		.type	__func__.7153, %object
 1037              		.size	__func__.7153, 12
 1038              	__func__.7153:
 1039 0000 63685379 		.ascii	"chSysUnlock\000"
 1039      73556E6C 
 1039      6F636B00 
 1040              		.section	.rodata.chprintf.constprop.0.str1.4,"aMS",%progbits,1
 1041              		.align	2
 1042              	.LC0:
 1043 0000 63617074 		.ascii	"capture_time=%d\012\000"
 1043      7572655F 
 1043      74696D65 
 1043      3D25640A 
 1043      00
 1044              		.text
 1045              	.Letext0:
 1046              		.file 8 "/Applications/Eclipse_e-puck2.app/Contents/Eclipse_e-puck2/Tools/gcc-arm-none-eabi-7-2017
 1047              		.file 9 "/Applications/Eclipse_e-puck2.app/Contents/Eclipse_e-puck2/Tools/gcc-arm-none-eabi-7-2017
 1048              		.file 10 "/Applications/Eclipse_e-puck2.app/Contents/Eclipse_e-puck2/Tools/gcc-arm-none-eabi-7-201
 1049              		.file 11 "../../lib/e-puck2_main-processor/ChibiOS//os/rt/ports/ARMCMx/compilers/GCC/chtypes.h"
 1050              		.file 12 "../../lib/e-puck2_main-processor/ChibiOS//os/rt/include/chsystypes.h"
 1051              		.file 13 "../../lib/e-puck2_main-processor/ChibiOS//os/rt/include/chschd.h"
 1052              		.file 14 "../../lib/e-puck2_main-processor/ChibiOS//os/ext/CMSIS/include/core_cm4.h"
 1053              		.file 15 "../../lib/e-puck2_main-processor/ChibiOS//os/ext/CMSIS/ST/system_stm32f4xx.h"
 1054              		.file 16 "../../lib/e-puck2_main-processor/ChibiOS//os/ext/CMSIS/ST/stm32f407xx.h"
 1055              		.file 17 "../../lib/e-puck2_main-processor/ChibiOS//os/rt/ports/ARMCMx/chcore.h"
 1056              		.file 18 "../../lib/e-puck2_main-processor/ChibiOS//os/rt/ports/ARMCMx/chcore_v7m.h"
 1057              		.file 19 "../../lib/e-puck2_main-processor/ChibiOS//os/rt/include/chdebug.h"
 1058              		.file 20 "../../lib/e-puck2_main-processor/ChibiOS//os/rt/include/chtm.h"
 1059              		.file 21 "../../lib/e-puck2_main-processor/ChibiOS//os/rt/include/chstats.h"
 1060              		.file 22 "../../lib/e-puck2_main-processor/ChibiOS//os/rt/include/chsem.h"
 1061              		.file 23 "../../lib/e-puck2_main-processor/ChibiOS//os/rt/include/chmtx.h"
 1062              		.file 24 "../../lib/e-puck2_main-processor/ChibiOS//os/rt/include/chevents.h"
 1063              		.file 25 "../../lib/e-puck2_main-processor/ChibiOS//os/rt/include/chqueues.h"
ARM GAS  /var/folders/by/7g7br9lj2xnbkz1cp6hj5p2r0000gn/T//cclAZm1T.s 			page 20


 1064              		.file 26 "../../lib/e-puck2_main-processor/ChibiOS//os/rt/include/chstreams.h"
 1065              		.file 27 "../../lib/e-puck2_main-processor/ChibiOS//os/hal/ports/STM32/STM32F4xx/stm32_dma.h"
 1066              		.file 28 "../../lib/e-puck2_main-processor/ChibiOS//os/hal/include/hal_ioblock.h"
 1067              		.file 29 "../../lib/e-puck2_main-processor/ChibiOS//os/hal/ports/STM32/LLD/GPIOv2/pal_lld.h"
 1068              		.file 30 "../../lib/e-puck2_main-processor/ChibiOS//os/hal/include/adc.h"
 1069              		.file 31 "../../lib/e-puck2_main-processor/ChibiOS//os/hal/ports/STM32/STM32F4xx/adc_lld.h"
 1070              		.file 32 "../../lib/e-puck2_main-processor/ChibiOS//os/hal/include/can.h"
 1071              		.file 33 "../../lib/e-puck2_main-processor/ChibiOS//os/hal/ports/STM32/LLD/can_lld.h"
 1072              		.file 34 "../../lib/e-puck2_main-processor/ChibiOS//os/hal/include/dac.h"
 1073              		.file 35 "../../lib/e-puck2_main-processor/ChibiOS//os/hal/ports/STM32/LLD/DACv1/dac_lld.h"
 1074              		.file 36 "../../lib/e-puck2_main-processor/ChibiOS//os/hal/include/ext.h"
 1075              		.file 37 "../../lib/e-puck2_main-processor/ChibiOS//os/hal/ports/STM32/LLD/ext_lld.h"
 1076              		.file 38 "../../lib/e-puck2_main-processor/ChibiOS//os/hal/include/gpt.h"
 1077              		.file 39 "../../lib/e-puck2_main-processor/ChibiOS//os/hal/ports/STM32/LLD/TIMv1/gpt_lld.h"
 1078              		.file 40 "../../lib/e-puck2_main-processor/ChibiOS//os/hal/ports/STM32/LLD/TIMv1/stm32_tim.h"
 1079              		.file 41 "../../lib/e-puck2_main-processor/ChibiOS//os/hal/include/i2c.h"
 1080              		.file 42 "../../lib/e-puck2_main-processor/ChibiOS//os/hal/ports/STM32/LLD/I2Cv1/i2c_lld.h"
 1081              		.file 43 "../../lib/e-puck2_main-processor/ChibiOS//os/hal/include/i2s.h"
 1082              		.file 44 "../../lib/e-puck2_main-processor/ChibiOS//os/hal/ports/STM32/LLD/SPIv1/i2s_lld.h"
 1083              		.file 45 "../../lib/e-puck2_main-processor/ChibiOS//os/hal/include/pwm.h"
 1084              		.file 46 "../../lib/e-puck2_main-processor/ChibiOS//os/hal/ports/STM32/LLD/TIMv1/pwm_lld.h"
 1085              		.file 47 "../../lib/e-puck2_main-processor/ChibiOS//os/hal/include/serial.h"
 1086              		.file 48 "../../lib/e-puck2_main-processor/ChibiOS//os/hal/ports/STM32/LLD/USARTv1/serial_lld.h"
 1087              		.file 49 "../../lib/e-puck2_main-processor/ChibiOS//os/hal/include/sdc.h"
 1088              		.file 50 "../../lib/e-puck2_main-processor/ChibiOS//os/hal/ports/STM32/LLD/sdc_lld.h"
 1089              		.file 51 "../../lib/e-puck2_main-processor/ChibiOS//os/hal/include/spi.h"
 1090              		.file 52 "../../lib/e-puck2_main-processor/ChibiOS//os/hal/ports/STM32/LLD/SPIv1/spi_lld.h"
 1091              		.file 53 "../../lib/e-puck2_main-processor/ChibiOS//os/hal/include/usb.h"
 1092              		.file 54 "../../lib/e-puck2_main-processor/ChibiOS//os/hal/ports/STM32/LLD/OTGv1/usb_lld.h"
 1093              		.file 55 "../../lib/e-puck2_main-processor/ChibiOS//os/hal/ports/STM32/LLD/OTGv1/stm32_otg.h"
 1094              		.file 56 "../../lib/e-puck2_main-processor/ChibiOS//os/hal/include/serial_usb.h"
 1095              		.file 57 "/Applications/Eclipse_e-puck2.app/Contents/Eclipse_e-puck2/Tools/gcc-arm-none-eabi-7-201
 1096              		.file 58 "<built-in>"
 1097              		.file 59 "../../lib/e-puck2_main-processor/src/usbcfg.h"
 1098              		.file 60 "../../lib/e-puck2_main-processor/ChibiOS_ext/os/hal/include/../ports/STM32/STM32F4xx/dcm
 1099              		.file 61 "../../lib/e-puck2_main-processor/src/camera/po8030.h"
 1100              		.file 62 "../../lib/e-puck2_main-processor/src/camera/dcmi_camera.h"
 1101              		.file 63 "/Applications/Eclipse_e-puck2.app/Contents/Eclipse_e-puck2/Tools/gcc-arm-none-eabi-7-201
 1102              		.file 64 "/Applications/Eclipse_e-puck2.app/Contents/Eclipse_e-puck2/Tools/gcc-arm-none-eabi-7-201
 1103              		.file 65 "/Applications/Eclipse_e-puck2.app/Contents/Eclipse_e-puck2/Tools/gcc-arm-none-eabi-7-201
 1104              		.file 66 "../../lib/e-puck2_main-processor/src/msgbus/messagebus.h"
 1105              		.file 67 "/Applications/Eclipse_e-puck2.app/Contents/Eclipse_e-puck2/Tools/gcc-arm-none-eabi-7-201
 1106              		.file 68 "/Applications/Eclipse_e-puck2.app/Contents/Eclipse_e-puck2/Tools/gcc-arm-none-eabi-7-201
 1107              		.file 69 "../../lib/e-puck2_main-processor/src/parameter/parameter.h"
 1108              		.file 70 "./main.h"
 1109              		.file 71 "../../lib/e-puck2_main-processor/ChibiOS//os/rt/include/chthreads.h"